(lp0
(lp1
I0
aI0
aI0
aa(lp2
I0
aI0
aI0
aa(lp3
I0
aI0
aI0
aa(lp4
I0
aI0
aI0
aa(lp5
I0
aI0
aI0
aa(lp6
I0
aI0
aI0
aa(lp7
I0
aI0
aI0
aa(lp8
I0
aI0
aI0
aa(lp9
I0
aI0
aI0
aa(lp10
I0
aI0
aI0
aa(lp11
I0
aI0
aI0
aa(lp12
I0
aI0
aI0
aa(lp13
I0
aI0
aI0
aa(lp14
I0
aI0
aI0
aa(lp15
I0
aI0
aI0
aa(lp16
I0
aI0
aI0
aa(lp17
I0
aI0
aI0
aa(lp18
I0
aI0
aI0
aa(lp19
I0
aI0
aI0
aa(lp20
I0
aI0
aI0
aa(lp21
I0
aI0
aI0
aa(lp22
I0
aI0
aI0
aa(lp23
I0
aI0
aI0
aa(lp24
I0
aI0
aI0
aa(lp25
I0
aI0
aI0
aa(lp26
I0
aI0
aI0
aa(lp27
I0
aI0
aI0
aa(lp28
I1
aI1
aI1
aa(lp29
I1
aI1
aI1
aa(lp30
I0
aI0
aI0
aa(lp31
I1
aI0
aI0
aa(lp32
I0
aI0
aI0
aa(lp33
I0
aI0
aI0
aa(lp34
I0
aI0
aI0
aa(lp35
I0
aI0
aI0
aa(lp36
I0
aI0
aI0
aa(lp37
I0
aI0
aI0
aa(lp38
I0
aI0
aI0
aa(lp39
I0
aI0
aI0
aa(lp40
I0
aI0
aI0
aa(lp41
I0
aI0
aI0
aa(lp42
I1
aI0
aI0
aa(lp43
I0
aI0
aI0
aa(lp44
I0
aI0
aI0
aa(lp45
I0
aI0
aI0
aa(lp46
I0
aI0
aI0
aa(lp47
I0
aI0
aI0
aa(lp48
I0
aI0
aI0
aa(lp49
I0
aI0
aI0
aa(lp50
I1
aI0
aI0
aa(lp51
I0
aI0
aI0
aa(lp52
I0
aI0
aI0
aa(lp53
I0
aI0
aI0
aa(lp54
I0
aI0
aI0
aa(lp55
I0
aI0
aI0
aa(lp56
I0
aI0
aI0
aa(lp57
I0
aI0
aI0
aa(lp58
I1
aI1
aI1
aa(lp59
I0
aI0
aI0
aa(lp60
I0
aI0
aI0
aa(lp61
I0
aI0
aI0
aa(lp62
I0
aI0
aI0
aa(lp63
I0
aI0
aI0
aa(lp64
I0
aI0
aI0
aa(lp65
I2
aI0
aI0
aa(lp66
I0
aI0
aI0
aa(lp67
I0
aI0
aI0
aa(lp68
I0
aI0
aI0
aa(lp69
I0
aI0
aI0
aa(lp70
I0
aI0
aI0
aa(lp71
I0
aI0
aI0
aa(lp72
I0
aI0
aI0
aa(lp73
I0
aI0
aI0
aa(lp74
I1
aI0
aI0
aa(lp75
I0
aI0
aI0
aa(lp76
I0
aI0
aI0
aa(lp77
I0
aI0
aI0
aa(lp78
I0
aI0
aI0
aa(lp79
I0
aI0
aI0
aa(lp80
I0
aI0
aI0
aa(lp81
I0
aI0
aI0
aa(lp82
I0
aI0
aI0
aa(lp83
I0
aI0
aI0
aa(lp84
I0
aI0
aI0
aa(lp85
I0
aI0
aI0
aa(lp86
I0
aI0
aI0
aa(lp87
I0
aI0
aI0
aa(lp88
I0
aI0
aI0
aa(lp89
I1
aI1
aI1
aa(lp90
I0
aI0
aI0
aa(lp91
I0
aI0
aI0
aa(lp92
I0
aI0
aI0
aa(lp93
I0
aI0
aI0
aa(lp94
I2
aI2
aI1
aa(lp95
I0
aI0
aI0
aa(lp96
I0
aI0
aI0
aa(lp97
I0
aI0
aI0
aa(lp98
I0
aI0
aI0
aa(lp99
I0
aI0
aI0
aa(lp100
I1
aI0
aI0
aa(lp101
I0
aI0
aI0
aa(lp102
I1
aI0
aI0
aa(lp103
I0
aI0
aI0
aa(lp104
I0
aI0
aI0
aa(lp105
I2
aI1
aI1
aa(lp106
I1
aI0
aI0
aa(lp107
I0
aI0
aI0
aa(lp108
I0
aI0
aI0
aa(lp109
I0
aI0
aI0
aa(lp110
I0
aI0
aI0
aa(lp111
I0
aI0
aI0
aa(lp112
I0
aI0
aI0
aa(lp113
I0
aI0
aI0
aa(lp114
I0
aI0
aI0
aa(lp115
I0
aI0
aI0
aa(lp116
I0
aI0
aI0
aa(lp117
I0
aI0
aI0
aa(lp118
I0
aI0
aI0
aa(lp119
I0
aI0
aI0
aa(lp120
I1
aI1
aI1
aa(lp121
I0
aI0
aI0
aa(lp122
I0
aI0
aI0
aa(lp123
I0
aI0
aI0
aa(lp124
I0
aI0
aI0
aa(lp125
I1
aI1
aI1
aa(lp126
I0
aI0
aI0
aa(lp127
I1
aI0
aI0
aa(lp128
I0
aI0
aI0
aa(lp129
I0
aI0
aI0
aa(lp130
I0
aI0
aI0
aa(lp131
I0
aI0
aI0
aa(lp132
I0
aI0
aI0
aa(lp133
I0
aI0
aI0
aa(lp134
I0
aI0
aI0
aa(lp135
I0
aI0
aI0
aa(lp136
I0
aI0
aI0
aa(lp137
I0
aI0
aI0
aa(lp138
I0
aI0
aI0
aa(lp139
I0
aI0
aI0
aa(lp140
I0
aI0
aI0
aa(lp141
I0
aI0
aI0
aa(lp142
I0
aI0
aI0
aa(lp143
I1
aI0
aI0
aa(lp144
I0
aI0
aI0
aa(lp145
I1
aI0
aI0
aa(lp146
I0
aI0
aI0
aa(lp147
I1
aI0
aI0
aa(lp148
I0
aI0
aI0
aa(lp149
I0
aI0
aI0
aa(lp150
I0
aI0
aI0
aa(lp151
I0
aI0
aI0
aa(lp152
I0
aI0
aI0
aa(lp153
I1
aI1
aI1
aa(lp154
I0
aI0
aI0
aa(lp155
I0
aI0
aI0
aa(lp156
I0
aI0
aI0
aa(lp157
I0
aI0
aI0
aa(lp158
I0
aI0
aI0
aa(lp159
I0
aI0
aI0
aa(lp160
I0
aI0
aI0
aa(lp161
I0
aI0
aI0
aa(lp162
I0
aI0
aI0
aa(lp163
I0
aI0
aI0
aa(lp164
I0
aI0
aI0
aa(lp165
I0
aI0
aI0
aa(lp166
I1
aI0
aI0
aa(lp167
I0
aI0
aI0
aa(lp168
I0
aI0
aI0
aa(lp169
I1
aI1
aI1
aa(lp170
I0
aI0
aI0
aa(lp171
I0
aI0
aI0
aa(lp172
I0
aI0
aI0
aa(lp173
I0
aI0
aI0
aa(lp174
I1
aI0
aI0
aa(lp175
I0
aI0
aI0
aa(lp176
I0
aI0
aI0
aa(lp177
I0
aI0
aI0
aa(lp178
I0
aI0
aI0
aa(lp179
I0
aI0
aI0
aa(lp180
I0
aI0
aI0
aa(lp181
I0
aI0
aI0
aa(lp182
I0
aI0
aI0
aa(lp183
I0
aI0
aI0
aa(lp184
I0
aI0
aI0
aa(lp185
I0
aI0
aI0
aa(lp186
I0
aI0
aI0
aa(lp187
I0
aI0
aI0
aa(lp188
I0
aI0
aI0
aa(lp189
I0
aI0
aI0
aa(lp190
I3
aI1
aI0
aa(lp191
I0
aI0
aI0
aa(lp192
I0
aI0
aI0
aa(lp193
I0
aI0
aI0
aa(lp194
I0
aI0
aI0
aa(lp195
I0
aI0
aI0
aa(lp196
I0
aI0
aI0
aa(lp197
I0
aI0
aI0
aa(lp198
I0
aI0
aI0
aa(lp199
I0
aI0
aI0
aa(lp200
I0
aI0
aI0
aa(lp201
I0
aI0
aI0
aa(lp202
I0
aI0
aI0
aa(lp203
I0
aI0
aI0
aa(lp204
I2
aI0
aI0
aa(lp205
I1
aI1
aI1
aa(lp206
I0
aI0
aI0
aa(lp207
I0
aI0
aI0
aa(lp208
I1
aI0
aI0
aa(lp209
I0
aI0
aI0
aa(lp210
I0
aI0
aI0
aa(lp211
I1
aI0
aI0
aa(lp212
I1
aI0
aI0
aa(lp213
I0
aI0
aI0
aa(lp214
I0
aI0
aI0
aa(lp215
I1
aI0
aI0
aa(lp216
I0
aI0
aI0
aa(lp217
I0
aI0
aI0
aa(lp218
I1
aI1
aI1
aa(lp219
I0
aI0
aI0
aa(lp220
I1
aI1
aI1
aa(lp221
I0
aI0
aI0
aa(lp222
I1
aI0
aI0
aa(lp223
I0
aI0
aI0
aa(lp224
I0
aI0
aI0
aa(lp225
I0
aI0
aI0
aa(lp226
I0
aI0
aI0
aa(lp227
I0
aI0
aI0
aa(lp228
I0
aI0
aI0
aa(lp229
I0
aI0
aI0
aa(lp230
I0
aI0
aI0
aa(lp231
I0
aI0
aI0
aa(lp232
I0
aI0
aI0
aa(lp233
I0
aI0
aI0
aa(lp234
I0
aI0
aI0
aa(lp235
I3
aI2
aI0
aa(lp236
I0
aI0
aI0
aa(lp237
I0
aI0
aI0
aa(lp238
I0
aI0
aI0
aa(lp239
I0
aI0
aI0
aa(lp240
I0
aI0
aI0
aa(lp241
I0
aI0
aI0
aa(lp242
I0
aI0
aI0
aa(lp243
I1
aI0
aI0
aa(lp244
I0
aI0
aI0
aa(lp245
I1
aI0
aI0
aa(lp246
I0
aI0
aI0
aa(lp247
I0
aI0
aI0
aa(lp248
I0
aI0
aI0
aa(lp249
I0
aI0
aI0
aa(lp250
I0
aI0
aI0
aa(lp251
I0
aI0
aI0
aa(lp252
I0
aI0
aI0
aa(lp253
I0
aI0
aI0
aa(lp254
I0
aI0
aI0
aa(lp255
I1
aI0
aI0
aa(lp256
I2
aI1
aI0
aa(lp257
I1
aI1
aI1
aa(lp258
I0
aI0
aI0
aa(lp259
I0
aI0
aI0
aa(lp260
I0
aI0
aI0
aa(lp261
I0
aI0
aI0
aa(lp262
I1
aI0
aI0
aa(lp263
I1
aI0
aI0
aa(lp264
I1
aI1
aI1
aa(lp265
I0
aI0
aI0
aa(lp266
I1
aI0
aI0
aa(lp267
I0
aI0
aI0
aa(lp268
I0
aI0
aI0
aa(lp269
I1
aI0
aI0
aa(lp270
I1
aI0
aI0
aa(lp271
I0
aI0
aI0
aa(lp272
I0
aI0
aI0
aa(lp273
I0
aI0
aI0
aa(lp274
I0
aI0
aI0
aa(lp275
I1
aI0
aI0
aa(lp276
I0
aI0
aI0
aa(lp277
I0
aI0
aI0
aa(lp278
I0
aI0
aI0
aa(lp279
I1
aI0
aI0
aa(lp280
I0
aI0
aI0
aa(lp281
I0
aI0
aI0
aa(lp282
I0
aI0
aI0
aa(lp283
I1
aI0
aI0
aa(lp284
I0
aI0
aI0
aa(lp285
I1
aI0
aI0
aa(lp286
I0
aI0
aI0
aa(lp287
I0
aI0
aI0
aa(lp288
I0
aI0
aI0
aa(lp289
I1
aI1
aI1
aa(lp290
I0
aI0
aI0
aa(lp291
I0
aI0
aI0
aa(lp292
I0
aI0
aI0
aa(lp293
I0
aI0
aI0
aa(lp294
I0
aI0
aI0
aa(lp295
I0
aI0
aI0
aa(lp296
I1
aI1
aI1
aa(lp297
I0
aI0
aI0
aa(lp298
I0
aI0
aI0
aa(lp299
I0
aI0
aI0
aa(lp300
I0
aI0
aI0
aa(lp301
I1
aI0
aI0
aa(lp302
I0
aI0
aI0
aa(lp303
I0
aI0
aI0
aa(lp304
I0
aI0
aI0
aa(lp305
I0
aI0
aI0
aa(lp306
I0
aI0
aI0
aa(lp307
I0
aI0
aI0
aa(lp308
I0
aI0
aI0
aa(lp309
I0
aI0
aI0
aa(lp310
I0
aI0
aI0
aa(lp311
I0
aI0
aI0
aa(lp312
I0
aI0
aI0
aa(lp313
I0
aI0
aI0
aa(lp314
I0
aI0
aI0
aa(lp315
I0
aI0
aI0
aa(lp316
I1
aI0
aI0
aa(lp317
I0
aI0
aI0
aa(lp318
I0
aI0
aI0
aa(lp319
I0
aI0
aI0
aa(lp320
I0
aI0
aI0
aa(lp321
I1
aI0
aI0
aa(lp322
I1
aI0
aI0
aa(lp323
I0
aI0
aI0
aa(lp324
I0
aI0
aI0
aa(lp325
I0
aI0
aI0
aa(lp326
I0
aI0
aI0
aa(lp327
I0
aI0
aI0
aa(lp328
I0
aI0
aI0
aa(lp329
I1
aI0
aI0
aa(lp330
I0
aI0
aI0
aa(lp331
I0
aI0
aI0
aa(lp332
I0
aI0
aI0
aa(lp333
I1
aI0
aI0
aa(lp334
I1
aI1
aI1
aa(lp335
I2
aI2
aI1
aa(lp336
I0
aI0
aI0
aa(lp337
I0
aI0
aI0
aa(lp338
I1
aI0
aI0
aa(lp339
I0
aI0
aI0
aa(lp340
I1
aI1
aI1
aa(lp341
I0
aI0
aI0
aa(lp342
I0
aI0
aI0
aa(lp343
I1
aI0
aI0
aa(lp344
I1
aI0
aI0
aa(lp345
I1
aI0
aI0
aa(lp346
I0
aI0
aI0
aa(lp347
I0
aI0
aI0
aa(lp348
I0
aI0
aI0
aa(lp349
I0
aI0
aI0
aa(lp350
I0
aI0
aI0
aa(lp351
I0
aI0
aI0
aa(lp352
I0
aI0
aI0
aa(lp353
I0
aI0
aI0
aa(lp354
I0
aI0
aI0
aa(lp355
I0
aI0
aI0
aa(lp356
I2
aI0
aI0
aa(lp357
I1
aI1
aI1
aa(lp358
I2
aI0
aI0
aa(lp359
I1
aI0
aI0
aa(lp360
I0
aI0
aI0
aa(lp361
I2
aI1
aI0
aa(lp362
I0
aI0
aI0
aa(lp363
I0
aI0
aI0
aa(lp364
I0
aI0
aI0
aa(lp365
I0
aI0
aI0
aa(lp366
I0
aI0
aI0
aa(lp367
I0
aI0
aI0
aa(lp368
I0
aI0
aI0
aa(lp369
I0
aI0
aI0
aa(lp370
I1
aI1
aI1
aa(lp371
I0
aI0
aI0
aa(lp372
I0
aI0
aI0
aa(lp373
I0
aI0
aI0
aa(lp374
I0
aI0
aI0
aa(lp375
I0
aI0
aI0
aa(lp376
I1
aI0
aI0
aa(lp377
I0
aI0
aI0
aa(lp378
I0
aI0
aI0
aa(lp379
I0
aI0
aI0
aa(lp380
I0
aI0
aI0
aa(lp381
I3
aI0
aI0
aa(lp382
I1
aI0
aI0
aa(lp383
I0
aI0
aI0
aa(lp384
I0
aI0
aI0
aa(lp385
I0
aI0
aI0
aa(lp386
I0
aI0
aI0
aa(lp387
I0
aI0
aI0
aa(lp388
I0
aI0
aI0
aa(lp389
I1
aI0
aI0
aa(lp390
I0
aI0
aI0
aa(lp391
I0
aI0
aI0
aa(lp392
I3
aI3
aI1
aa(lp393
I0
aI0
aI0
aa(lp394
I1
aI0
aI0
aa(lp395
I0
aI0
aI0
aa(lp396
I0
aI0
aI0
aa(lp397
I0
aI0
aI0
aa(lp398
I0
aI0
aI0
aa(lp399
I0
aI0
aI0
aa(lp400
I0
aI0
aI0
aa(lp401
I0
aI0
aI0
aa(lp402
I0
aI0
aI0
aa(lp403
I1
aI0
aI0
aa(lp404
I0
aI0
aI0
aa(lp405
I1
aI1
aI1
aa(lp406
I2
aI0
aI0
aa(lp407
I2
aI1
aI1
aa(lp408
I0
aI0
aI0
aa(lp409
I0
aI0
aI0
aa(lp410
I0
aI0
aI0
aa(lp411
I0
aI0
aI0
aa(lp412
I0
aI0
aI0
aa(lp413
I0
aI0
aI0
aa(lp414
I0
aI0
aI0
aa(lp415
I0
aI0
aI0
aa(lp416
I0
aI0
aI0
aa(lp417
I0
aI0
aI0
aa(lp418
I0
aI0
aI0
aa(lp419
I0
aI0
aI0
aa(lp420
I0
aI0
aI0
aa(lp421
I1
aI1
aI1
aa(lp422
I1
aI1
aI1
aa(lp423
I1
aI0
aI0
aa(lp424
I1
aI0
aI0
aa(lp425
I2
aI1
aI1
aa(lp426
I0
aI0
aI0
aa(lp427
I0
aI0
aI0
aa(lp428
I2
aI0
aI0
aa(lp429
I0
aI0
aI0
aa(lp430
I0
aI0
aI0
aa(lp431
I0
aI0
aI0
aa(lp432
I0
aI0
aI0
aa(lp433
I0
aI0
aI0
aa(lp434
I1
aI0
aI0
aa(lp435
I1
aI0
aI0
aa(lp436
I0
aI0
aI0
aa(lp437
I0
aI0
aI0
aa(lp438
I0
aI0
aI0
aa(lp439
I1
aI0
aI0
aa(lp440
I1
aI0
aI0
aa(lp441
I1
aI0
aI0
aa(lp442
I0
aI0
aI0
aa(lp443
I1
aI0
aI0
aa(lp444
I0
aI0
aI0
aa(lp445
I0
aI0
aI0
aa(lp446
I0
aI0
aI0
aa(lp447
I1
aI0
aI0
aa(lp448
I0
aI0
aI0
aa(lp449
I0
aI0
aI0
aa(lp450
I1
aI0
aI0
aa(lp451
I0
aI0
aI0
aa(lp452
I0
aI0
aI0
aa(lp453
I2
aI0
aI0
aa(lp454
I0
aI0
aI0
aa(lp455
I0
aI0
aI0
aa(lp456
I2
aI2
aI1
aa(lp457
I0
aI0
aI0
aa(lp458
I2
aI0
aI0
aa(lp459
I1
aI1
aI1
aa(lp460
I0
aI0
aI0
aa(lp461
I0
aI0
aI0
aa(lp462
I2
aI0
aI0
aa(lp463
I1
aI0
aI0
aa(lp464
I1
aI0
aI0
aa(lp465
I1
aI0
aI0
aa(lp466
I3
aI0
aI0
aa(lp467
I0
aI0
aI0
aa(lp468
I0
aI0
aI0
aa(lp469
I0
aI0
aI0
aa(lp470
I1
aI1
aI1
aa(lp471
I1
aI0
aI0
aa(lp472
I2
aI0
aI0
aa(lp473
I4
aI1
aI1
aa(lp474
I2
aI0
aI0
aa(lp475
I2
aI0
aI0
aa(lp476
I1
aI0
aI0
aa(lp477
I0
aI0
aI0
aa(lp478
I1
aI0
aI0
aa(lp479
I1
aI0
aI0
aa(lp480
I1
aI0
aI0
aa(lp481
I1
aI0
aI0
aa(lp482
I1
aI0
aI0
aa(lp483
I0
aI0
aI0
aa(lp484
I0
aI0
aI0
aa(lp485
I2
aI0
aI0
aa(lp486
I1
aI0
aI0
aa(lp487
I0
aI0
aI0
aa(lp488
I1
aI0
aI0
aa(lp489
I0
aI0
aI0
aa(lp490
I0
aI0
aI0
aa(lp491
I2
aI1
aI0
aa(lp492
I3
aI2
aI1
aa(lp493
I0
aI0
aI0
aa(lp494
I0
aI0
aI0
aa(lp495
I0
aI0
aI0
aa(lp496
I0
aI0
aI0
aa(lp497
I0
aI0
aI0
aa(lp498
I0
aI0
aI0
aa(lp499
I3
aI2
aI1
aa(lp500
I3
aI0
aI0
aa(lp501
I0
aI0
aI0
aa(lp502
I2
aI0
aI0
aa(lp503
I2
aI1
aI1
aa(lp504
I1
aI0
aI0
aa(lp505
I1
aI1
aI1
aa(lp506
I1
aI0
aI0
aa(lp507
I1
aI0
aI0
aa(lp508
I0
aI0
aI0
aa(lp509
I2
aI0
aI0
aa(lp510
I1
aI0
aI0
aa(lp511
I1
aI0
aI0
aa(lp512
I0
aI0
aI0
aa(lp513
I0
aI0
aI0
aa(lp514
I4
aI0
aI0
aa(lp515
I1
aI0
aI0
aa(lp516
I0
aI0
aI0
aa(lp517
I0
aI0
aI0
aa(lp518
I0
aI0
aI0
aa(lp519
I0
aI0
aI0
aa(lp520
I0
aI0
aI0
aa(lp521
I0
aI0
aI0
aa(lp522
I0
aI0
aI0
aa(lp523
I0
aI0
aI0
aa(lp524
I0
aI0
aI0
aa(lp525
I0
aI0
aI0
aa(lp526
I0
aI0
aI0
aa(lp527
I0
aI0
aI0
aa(lp528
I1
aI0
aI0
aa(lp529
I1
aI0
aI0
aa(lp530
I0
aI0
aI0
aa(lp531
I3
aI2
aI1
aa(lp532
I0
aI0
aI0
aa(lp533
I0
aI0
aI0
aa(lp534
I0
aI0
aI0
aa(lp535
I1
aI1
aI1
aa(lp536
I0
aI0
aI0
aa(lp537
I0
aI0
aI0
aa(lp538
I0
aI0
aI0
aa(lp539
I0
aI0
aI0
aa(lp540
I0
aI0
aI0
aa(lp541
I0
aI0
aI0
aa(lp542
I0
aI0
aI0
aa(lp543
I0
aI0
aI0
aa(lp544
I2
aI0
aI0
aa(lp545
I0
aI0
aI0
aa(lp546
I2
aI0
aI0
aa(lp547
I0
aI0
aI0
aa(lp548
I2
aI0
aI0
aa(lp549
I2
aI0
aI0
aa(lp550
I0
aI0
aI0
aa(lp551
I1
aI0
aI0
aa(lp552
I2
aI0
aI0
aa(lp553
I0
aI0
aI0
aa(lp554
I2
aI0
aI0
aa(lp555
I1
aI0
aI0
aa(lp556
I2
aI0
aI0
aa(lp557
I0
aI0
aI0
aa(lp558
I0
aI0
aI0
aa(lp559
I1
aI0
aI0
aa(lp560
I1
aI0
aI0
aa(lp561
I1
aI0
aI0
aa(lp562
I0
aI0
aI0
aa(lp563
I1
aI1
aI1
aa(lp564
I0
aI0
aI0
aa(lp565
I0
aI0
aI0
aa(lp566
I0
aI0
aI0
aa(lp567
I0
aI0
aI0
aa(lp568
I0
aI0
aI0
aa(lp569
I0
aI0
aI0
aa(lp570
I0
aI0
aI0
aa(lp571
I2
aI0
aI0
aa(lp572
I1
aI1
aI1
aa(lp573
I0
aI0
aI0
aa(lp574
I1
aI0
aI0
aa(lp575
I2
aI1
aI1
aa(lp576
I0
aI0
aI0
aa(lp577
I2
aI0
aI0
aa(lp578
I0
aI0
aI0
aa(lp579
I0
aI0
aI0
aa(lp580
I3
aI0
aI0
aa(lp581
I1
aI0
aI0
aa(lp582
I2
aI0
aI0
aa(lp583
I1
aI0
aI0
aa(lp584
I0
aI0
aI0
aa(lp585
I2
aI2
aI1
aa(lp586
I2
aI0
aI0
aa(lp587
I0
aI0
aI0
aa(lp588
I0
aI0
aI0
aa(lp589
I1
aI1
aI1
aa(lp590
I1
aI0
aI0
aa(lp591
I1
aI0
aI0
aa(lp592
I0
aI0
aI0
aa(lp593
I5
aI0
aI0
aa(lp594
I1
aI0
aI0
aa(lp595
I6
aI1
aI1
aa(lp596
I2
aI1
aI1
aa(lp597
I1
aI0
aI0
aa(lp598
I0
aI0
aI0
aa(lp599
I0
aI0
aI0
aa(lp600
I1
aI0
aI0
aa(lp601
I0
aI0
aI0
aa(lp602
I2
aI1
aI1
aa(lp603
I3
aI2
aI0
aa(lp604
I3
aI0
aI0
aa(lp605
I2
aI0
aI0
aa(lp606
I2
aI1
aI1
aa(lp607
I0
aI0
aI0
aa(lp608
I0
aI0
aI0
aa(lp609
I0
aI0
aI0
aa(lp610
I0
aI0
aI0
aa(lp611
I0
aI0
aI0
aa(lp612
I0
aI0
aI0
aa(lp613
I0
aI0
aI0
aa(lp614
I0
aI0
aI0
aa(lp615
I0
aI0
aI0
aa(lp616
I0
aI0
aI0
aa(lp617
I0
aI0
aI0
aa(lp618
I0
aI0
aI0
aa(lp619
I0
aI0
aI0
aa(lp620
I0
aI0
aI0
aa(lp621
I0
aI0
aI0
aa(lp622
I0
aI0
aI0
aa(lp623
I0
aI0
aI0
aa(lp624
I4
aI2
aI0
aa(lp625
I2
aI0
aI0
aa(lp626
I0
aI0
aI0
aa(lp627
I0
aI0
aI0
aa(lp628
I0
aI0
aI0
aa(lp629
I0
aI0
aI0
aa(lp630
I0
aI0
aI0
aa(lp631
I2
aI1
aI1
aa(lp632
I1
aI0
aI0
aa(lp633
I0
aI0
aI0
aa(lp634
I0
aI0
aI0
aa(lp635
I0
aI0
aI0
aa(lp636
I0
aI0
aI0
aa(lp637
I0
aI0
aI0
aa(lp638
I0
aI0
aI0
aa(lp639
I0
aI0
aI0
aa(lp640
I0
aI0
aI0
aa(lp641
I0
aI0
aI0
aa(lp642
I0
aI0
aI0
aa(lp643
I0
aI0
aI0
aa(lp644
I4
aI4
aI1
aa(lp645
I1
aI1
aI1
aa(lp646
I0
aI0
aI0
aa(lp647
I0
aI0
aI0
aa(lp648
I0
aI0
aI0
aa(lp649
I4
aI0
aI0
aa(lp650
I0
aI0
aI0
aa(lp651
I1
aI1
aI1
aa(lp652
I1
aI1
aI1
aa(lp653
I0
aI0
aI0
aa(lp654
I2
aI1
aI1
aa(lp655
I0
aI0
aI0
aa(lp656
I0
aI0
aI0
aa(lp657
I0
aI0
aI0
aa(lp658
I0
aI0
aI0
aa(lp659
I0
aI0
aI0
aa(lp660
I0
aI0
aI0
aa(lp661
I0
aI0
aI0
aa(lp662
I0
aI0
aI0
aa(lp663
I0
aI0
aI0
aa(lp664
I0
aI0
aI0
aa(lp665
I0
aI0
aI0
aa(lp666
I0
aI0
aI0
aa(lp667
I1
aI0
aI0
aa(lp668
I1
aI0
aI0
aa(lp669
I0
aI0
aI0
aa(lp670
I0
aI0
aI0
aa(lp671
I1
aI0
aI0
aa(lp672
I1
aI0
aI0
aa(lp673
I0
aI0
aI0
aa(lp674
I1
aI0
aI0
aa(lp675
I0
aI0
aI0
aa(lp676
I0
aI0
aI0
aa(lp677
I1
aI1
aI1
aa(lp678
I1
aI0
aI0
aa(lp679
I0
aI0
aI0
aa(lp680
I0
aI0
aI0
aa(lp681
I0
aI0
aI0
aa(lp682
I1
aI0
aI0
aa(lp683
I0
aI0
aI0
aa(lp684
I1
aI0
aI0
aa(lp685
I0
aI0
aI0
aa(lp686
I0
aI0
aI0
aa(lp687
I4
aI0
aI0
aa(lp688
I1
aI0
aI0
aa(lp689
I3
aI3
aI1
aa(lp690
I0
aI0
aI0
aa(lp691
I0
aI0
aI0
aa(lp692
I0
aI0
aI0
aa(lp693
I2
aI0
aI0
aa(lp694
I0
aI0
aI0
aa(lp695
I0
aI0
aI0
aa(lp696
I0
aI0
aI0
aa(lp697
I0
aI0
aI0
aa(lp698
I1
aI0
aI0
aa(lp699
I0
aI0
aI0
aa(lp700
I0
aI0
aI0
aa(lp701
I3
aI0
aI0
aa(lp702
I3
aI0
aI0
aa(lp703
I0
aI0
aI0
aa(lp704
I0
aI0
aI0
aa(lp705
I0
aI0
aI0
aa(lp706
I3
aI1
aI0
aa(lp707
I2
aI0
aI0
aa(lp708
I2
aI0
aI0
aa(lp709
I0
aI0
aI0
aa(lp710
I0
aI0
aI0
aa(lp711
I3
aI0
aI0
aa(lp712
I0
aI0
aI0
aa(lp713
I3
aI2
aI1
aa(lp714
I3
aI0
aI0
aa(lp715
I0
aI0
aI0
aa(lp716
I0
aI0
aI0
aa(lp717
I0
aI0
aI0
aa(lp718
I0
aI0
aI0
aa(lp719
I2
aI0
aI0
aa(lp720
I0
aI0
aI0
aa(lp721
I0
aI0
aI0
aa(lp722
I0
aI0
aI0
aa(lp723
I0
aI0
aI0
aa(lp724
I0
aI0
aI0
aa(lp725
I0
aI0
aI0
aa(lp726
I3
aI1
aI0
aa(lp727
I0
aI0
aI0
aa(lp728
I1
aI0
aI0
aa(lp729
I0
aI0
aI0
aa(lp730
I0
aI0
aI0
aa(lp731
I1
aI0
aI0
aa(lp732
I0
aI0
aI0
aa(lp733
I0
aI0
aI0
aa(lp734
I0
aI0
aI0
aa(lp735
I0
aI0
aI0
aa(lp736
I0
aI0
aI0
aa(lp737
I2
aI1
aI1
aa(lp738
I4
aI2
aI0
aa(lp739
I0
aI0
aI0
aa(lp740
I3
aI0
aI0
aa(lp741
I0
aI0
aI0
aa(lp742
I1
aI0
aI0
aa(lp743
I2
aI0
aI0
aa(lp744
I1
aI0
aI0
aa(lp745
I1
aI0
aI0
aa(lp746
I0
aI0
aI0
aa(lp747
I0
aI0
aI0
aa(lp748
I0
aI0
aI0
aa(lp749
I3
aI0
aI0
aa(lp750
I5
aI0
aI0
aa(lp751
I0
aI0
aI0
aa(lp752
I0
aI0
aI0
aa(lp753
I0
aI0
aI0
aa(lp754
I0
aI0
aI0
aa(lp755
I0
aI0
aI0
aa(lp756
I1
aI0
aI0
aa(lp757
I2
aI0
aI0
aa(lp758
I0
aI0
aI0
aa(lp759
I2
aI2
aI1
aa(lp760
I0
aI0
aI0
aa(lp761
I1
aI1
aI1
aa(lp762
I0
aI0
aI0
aa(lp763
I4
aI3
aI1
aa(lp764
I2
aI0
aI0
aa(lp765
I1
aI0
aI0
aa(lp766
I0
aI0
aI0
aa(lp767
I1
aI1
aI1
aa(lp768
I4
aI1
aI0
aa(lp769
I1
aI0
aI0
aa(lp770
I2
aI1
aI1
aa(lp771
I1
aI0
aI0
aa(lp772
I0
aI0
aI0
aa(lp773
I0
aI0
aI0
aa(lp774
I1
aI0
aI0
aa(lp775
I2
aI0
aI0
aa(lp776
I0
aI0
aI0
aa(lp777
I3
aI0
aI0
aa(lp778
I0
aI0
aI0
aa(lp779
I0
aI0
aI0
aa(lp780
I0
aI0
aI0
aa(lp781
I1
aI0
aI0
aa(lp782
I0
aI0
aI0
aa(lp783
I0
aI0
aI0
aa(lp784
I0
aI0
aI0
aa(lp785
I1
aI0
aI0
aa(lp786
I0
aI0
aI0
aa(lp787
I0
aI0
aI0
aa(lp788
I0
aI0
aI0
aa(lp789
I0
aI0
aI0
aa(lp790
I0
aI0
aI0
aa(lp791
I0
aI0
aI0
aa(lp792
I0
aI0
aI0
aa(lp793
I0
aI0
aI0
aa(lp794
I0
aI0
aI0
aa(lp795
I1
aI0
aI0
aa(lp796
I1
aI0
aI0
aa(lp797
I2
aI1
aI1
aa(lp798
I1
aI0
aI0
aa(lp799
I0
aI0
aI0
aa(lp800
I3
aI2
aI1
aa(lp801
I0
aI0
aI0
aa(lp802
I1
aI0
aI0
aa(lp803
I2
aI1
aI0
aa(lp804
I1
aI0
aI0
aa(lp805
I0
aI0
aI0
aa(lp806
I5
aI0
aI0
aa(lp807
I0
aI0
aI0
aa(lp808
I0
aI0
aI0
aa(lp809
I0
aI0
aI0
aa(lp810
I2
aI1
aI1
aa(lp811
I1
aI0
aI0
aa(lp812
I2
aI2
aI1
aa(lp813
I2
aI0
aI0
aa(lp814
I1
aI1
aI1
aa(lp815
I2
aI0
aI0
aa(lp816
I0
aI0
aI0
aa(lp817
I3
aI1
aI1
aa(lp818
I2
aI1
aI1
aa(lp819
I0
aI0
aI0
aa(lp820
I0
aI0
aI0
aa(lp821
I1
aI0
aI0
aa(lp822
I0
aI0
aI0
aa(lp823
I1
aI0
aI0
aa(lp824
I0
aI0
aI0
aa(lp825
I0
aI0
aI0
aa(lp826
I3
aI0
aI0
aa(lp827
I0
aI0
aI0
aa(lp828
I0
aI0
aI0
aa(lp829
I0
aI0
aI0
aa(lp830
I0
aI0
aI0
aa(lp831
I0
aI0
aI0
aa(lp832
I0
aI0
aI0
aa(lp833
I2
aI0
aI0
aa(lp834
I0
aI0
aI0
aa(lp835
I1
aI0
aI0
aa(lp836
I0
aI0
aI0
aa(lp837
I0
aI0
aI0
aa(lp838
I1
aI0
aI0
aa(lp839
I0
aI0
aI0
aa(lp840
I0
aI0
aI0
aa(lp841
I1
aI1
aI1
aa(lp842
I3
aI0
aI0
aa(lp843
I1
aI1
aI1
aa(lp844
I0
aI0
aI0
aa(lp845
I1
aI1
aI1
aa(lp846
I3
aI0
aI0
aa(lp847
I0
aI0
aI0
aa(lp848
I0
aI0
aI0
aa(lp849
I0
aI0
aI0
aa(lp850
I1
aI1
aI1
aa(lp851
I1
aI0
aI0
aa(lp852
I2
aI0
aI0
aa(lp853
I0
aI0
aI0
aa(lp854
I0
aI0
aI0
aa(lp855
I1
aI0
aI0
aa(lp856
I3
aI0
aI0
aa(lp857
I0
aI0
aI0
aa(lp858
I2
aI0
aI0
aa(lp859
I2
aI0
aI0
aa(lp860
I0
aI0
aI0
aa(lp861
I0
aI0
aI0
aa(lp862
I0
aI0
aI0
aa(lp863
I1
aI0
aI0
aa(lp864
I0
aI0
aI0
aa(lp865
I3
aI0
aI0
aa(lp866
I1
aI0
aI0
aa(lp867
I0
aI0
aI0
aa(lp868
I0
aI0
aI0
aa(lp869
I0
aI0
aI0
aa(lp870
I0
aI0
aI0
aa(lp871
I0
aI0
aI0
aa(lp872
I0
aI0
aI0
aa(lp873
I0
aI0
aI0
aa(lp874
I0
aI0
aI0
aa(lp875
I2
aI1
aI0
aa(lp876
I0
aI0
aI0
aa(lp877
I0
aI0
aI0
aa(lp878
I1
aI1
aI1
aa(lp879
I0
aI0
aI0
aa(lp880
I0
aI0
aI0
aa(lp881
I0
aI0
aI0
aa(lp882
I0
aI0
aI0
aa(lp883
I1
aI1
aI1
aa(lp884
I0
aI0
aI0
aa(lp885
I3
aI0
aI0
aa(lp886
I0
aI0
aI0
aa(lp887
I0
aI0
aI0
aa(lp888
I0
aI0
aI0
aa(lp889
I0
aI0
aI0
aa(lp890
I0
aI0
aI0
aa(lp891
I0
aI0
aI0
aa(lp892
I0
aI0
aI0
aa(lp893
I0
aI0
aI0
aa(lp894
I0
aI0
aI0
aa(lp895
I2
aI0
aI0
aa(lp896
I0
aI0
aI0
aa(lp897
I2
aI1
aI1
aa(lp898
I0
aI0
aI0
aa(lp899
I2
aI0
aI0
aa(lp900
I0
aI0
aI0
aa(lp901
I3
aI1
aI0
aa(lp902
I6
aI0
aI0
aa(lp903
I4
aI0
aI0
aa(lp904
I2
aI0
aI0
aa(lp905
I1
aI0
aI0
aa(lp906
I1
aI0
aI0
aa(lp907
I0
aI0
aI0
aa(lp908
I0
aI0
aI0
aa(lp909
I0
aI0
aI0
aa(lp910
I0
aI0
aI0
aa(lp911
I0
aI0
aI0
aa(lp912
I0
aI0
aI0
aa(lp913
I2
aI0
aI0
aa(lp914
I0
aI0
aI0
aa(lp915
I0
aI0
aI0
aa(lp916
I0
aI0
aI0
aa(lp917
I1
aI0
aI0
aa(lp918
I1
aI0
aI0
aa(lp919
I3
aI0
aI0
aa(lp920
I0
aI0
aI0
aa(lp921
I0
aI0
aI0
aa(lp922
I0
aI0
aI0
aa(lp923
I1
aI0
aI0
aa(lp924
I1
aI0
aI0
aa(lp925
I2
aI1
aI1
aa(lp926
I1
aI0
aI0
aa(lp927
I1
aI0
aI0
aa(lp928
I1
aI0
aI0
aa(lp929
I1
aI0
aI0
aa(lp930
I1
aI0
aI0
aa(lp931
I0
aI0
aI0
aa(lp932
I1
aI1
aI1
aa(lp933
I0
aI0
aI0
aa(lp934
I0
aI0
aI0
aa(lp935
I3
aI1
aI0
aa(lp936
I2
aI0
aI0
aa(lp937
I0
aI0
aI0
aa(lp938
I0
aI0
aI0
aa(lp939
I2
aI2
aI1
aa(lp940
I1
aI0
aI0
aa(lp941
I3
aI2
aI1
aa(lp942
I1
aI0
aI0
aa(lp943
I0
aI0
aI0
aa(lp944
I1
aI0
aI0
aa(lp945
I0
aI0
aI0
aa(lp946
I0
aI0
aI0
aa(lp947
I1
aI0
aI0
aa(lp948
I0
aI0
aI0
aa(lp949
I4
aI0
aI0
aa(lp950
I0
aI0
aI0
aa(lp951
I4
aI0
aI0
aa(lp952
I1
aI0
aI0
aa(lp953
I3
aI0
aI0
aa(lp954
I0
aI0
aI0
aa(lp955
I5
aI2
aI0
aa(lp956
I5
aI2
aI0
aa(lp957
I0
aI0
aI0
aa(lp958
I1
aI0
aI0
aa(lp959
I1
aI0
aI0
aa(lp960
I0
aI0
aI0
aa(lp961
I0
aI0
aI0
aa(lp962
I1
aI1
aI1
aa(lp963
I0
aI0
aI0
aa(lp964
I0
aI0
aI0
aa(lp965
I2
aI0
aI0
aa(lp966
I4
aI3
aI1
aa(lp967
I1
aI0
aI0
aa(lp968
I0
aI0
aI0
aa(lp969
I1
aI1
aI1
aa(lp970
I1
aI1
aI1
aa(lp971
I0
aI0
aI0
aa(lp972
I0
aI0
aI0
aa(lp973
I0
aI0
aI0
aa(lp974
I0
aI0
aI0
aa(lp975
I3
aI0
aI0
aa(lp976
I4
aI1
aI1
aa(lp977
I0
aI0
aI0
aa(lp978
I1
aI0
aI0
aa(lp979
I0
aI0
aI0
aa(lp980
I0
aI0
aI0
aa(lp981
I0
aI0
aI0
aa(lp982
I2
aI1
aI1
aa(lp983
I1
aI0
aI0
aa(lp984
I0
aI0
aI0
aa(lp985
I3
aI0
aI0
aa(lp986
I0
aI0
aI0
aa(lp987
I2
aI0
aI0
aa(lp988
I1
aI0
aI0
aa(lp989
I1
aI0
aI0
aa(lp990
I0
aI0
aI0
aa(lp991
I0
aI0
aI0
aa(lp992
I0
aI0
aI0
aa(lp993
I0
aI0
aI0
aa(lp994
I0
aI0
aI0
aa(lp995
I0
aI0
aI0
aa(lp996
I0
aI0
aI0
aa(lp997
I0
aI0
aI0
aa(lp998
I1
aI1
aI1
aa(lp999
I0
aI0
aI0
aa(lp1000
I0
aI0
aI0
aa(lp1001
I4
aI2
aI1
aa(lp1002
I2
aI1
aI1
aa(lp1003
I0
aI0
aI0
aa(lp1004
I0
aI0
aI0
aa(lp1005
I2
aI2
aI1
aa(lp1006
I0
aI0
aI0
aa(lp1007
I0
aI0
aI0
aa(lp1008
I1
aI0
aI0
aa(lp1009
I0
aI0
aI0
aa(lp1010
I3
aI1
aI0
aa(lp1011
I5
aI3
aI0
aa(lp1012
I0
aI0
aI0
aa(lp1013
I0
aI0
aI0
aa(lp1014
I0
aI0
aI0
aa(lp1015
I0
aI0
aI0
aa(lp1016
I3
aI0
aI0
aa(lp1017
I1
aI1
aI1
aa(lp1018
I2
aI1
aI1
aa(lp1019
I3
aI1
aI0
aa(lp1020
I4
aI1
aI1
aa(lp1021
I4
aI1
aI1
aa(lp1022
I2
aI1
aI0
aa(lp1023
I2
aI1
aI0
aa(lp1024
I2
aI2
aI1
aa(lp1025
I4
aI3
aI1
aa(lp1026
I3
aI0
aI0
aa(lp1027
I0
aI0
aI0
aa(lp1028
I5
aI0
aI0
aa(lp1029
I0
aI0
aI0
aa(lp1030
I1
aI0
aI0
aa(lp1031
I2
aI1
aI1
aa(lp1032
I0
aI0
aI0
aa(lp1033
I3
aI0
aI0
aa(lp1034
I3
aI0
aI0
aa(lp1035
I2
aI0
aI0
aa(lp1036
I1
aI0
aI0
aa(lp1037
I0
aI0
aI0
aa(lp1038
I0
aI0
aI0
aa(lp1039
I2
aI0
aI0
aa(lp1040
I0
aI0
aI0
aa(lp1041
I0
aI0
aI0
aa(lp1042
I0
aI0
aI0
aa(lp1043
I0
aI0
aI0
aa(lp1044
I0
aI0
aI0
aa(lp1045
I0
aI0
aI0
aa(lp1046
I1
aI1
aI1
aa(lp1047
I0
aI0
aI0
aa(lp1048
I0
aI0
aI0
aa(lp1049
I5
aI1
aI0
aa(lp1050
I1
aI0
aI0
aa(lp1051
I0
aI0
aI0
aa(lp1052
I3
aI1
aI0
aa(lp1053
I0
aI0
aI0
aa(lp1054
I0
aI0
aI0
aa(lp1055
I0
aI0
aI0
aa(lp1056
I0
aI0
aI0
aa(lp1057
I0
aI0
aI0
aa(lp1058
I0
aI0
aI0
aa(lp1059
I0
aI0
aI0
aa(lp1060
I0
aI0
aI0
aa(lp1061
I1
aI1
aI1
aa(lp1062
I0
aI0
aI0
aa(lp1063
I0
aI0
aI0
aa(lp1064
I0
aI0
aI0
aa(lp1065
I1
aI1
aI1
aa(lp1066
I0
aI0
aI0
aa(lp1067
I0
aI0
aI0
aa(lp1068
I0
aI0
aI0
aa(lp1069
I0
aI0
aI0
aa(lp1070
I0
aI0
aI0
aa(lp1071
I0
aI0
aI0
aa(lp1072
I0
aI0
aI0
aa(lp1073
I0
aI0
aI0
aa(lp1074
I0
aI0
aI0
aa(lp1075
I0
aI0
aI0
aa(lp1076
I0
aI0
aI0
aa(lp1077
I0
aI0
aI0
aa(lp1078
I0
aI0
aI0
aa(lp1079
I0
aI0
aI0
aa(lp1080
I0
aI0
aI0
aa(lp1081
I0
aI0
aI0
aa(lp1082
I0
aI0
aI0
aa(lp1083
I4
aI0
aI0
aa(lp1084
I2
aI1
aI1
aa(lp1085
I0
aI0
aI0
aa(lp1086
I3
aI2
aI0
aa(lp1087
I0
aI0
aI0
aa(lp1088
I0
aI0
aI0
aa(lp1089
I1
aI0
aI0
aa(lp1090
I3
aI1
aI0
aa(lp1091
I1
aI0
aI0
aa(lp1092
I0
aI0
aI0
aa(lp1093
I0
aI0
aI0
aa(lp1094
I3
aI0
aI0
aa(lp1095
I1
aI0
aI0
aa(lp1096
I1
aI0
aI0
aa(lp1097
I0
aI0
aI0
aa(lp1098
I0
aI0
aI0
aa(lp1099
I2
aI1
aI1
aa(lp1100
I0
aI0
aI0
aa(lp1101
I0
aI0
aI0
aa(lp1102
I0
aI0
aI0
aa(lp1103
I1
aI1
aI1
aa(lp1104
I0
aI0
aI0
aa(lp1105
I0
aI0
aI0
aa(lp1106
I1
aI0
aI0
aa(lp1107
I1
aI0
aI0
aa(lp1108
I2
aI1
aI0
aa(lp1109
I0
aI0
aI0
aa(lp1110
I0
aI0
aI0
aa(lp1111
I2
aI1
aI0
aa(lp1112
I0
aI0
aI0
aa(lp1113
I2
aI1
aI1
aa(lp1114
I0
aI0
aI0
aa(lp1115
I0
aI0
aI0
aa(lp1116
I0
aI0
aI0
aa(lp1117
I0
aI0
aI0
aa(lp1118
I1
aI0
aI0
aa(lp1119
I0
aI0
aI0
aa(lp1120
I1
aI1
aI1
aa(lp1121
I0
aI0
aI0
aa(lp1122
I0
aI0
aI0
aa(lp1123
I0
aI0
aI0
aa(lp1124
I0
aI0
aI0
aa(lp1125
I0
aI0
aI0
aa(lp1126
I1
aI1
aI1
aa(lp1127
I3
aI2
aI0
aa(lp1128
I0
aI0
aI0
aa(lp1129
I0
aI0
aI0
aa(lp1130
I0
aI0
aI0
aa(lp1131
I0
aI0
aI0
aa(lp1132
I0
aI0
aI0
aa(lp1133
I0
aI0
aI0
aa(lp1134
I0
aI0
aI0
aa(lp1135
I4
aI0
aI0
aa(lp1136
I4
aI0
aI0
aa(lp1137
I5
aI0
aI0
aa(lp1138
I1
aI0
aI0
aa(lp1139
I0
aI0
aI0
aa(lp1140
I1
aI0
aI0
aa(lp1141
I1
aI0
aI0
aa(lp1142
I3
aI0
aI0
aa(lp1143
I1
aI0
aI0
aa(lp1144
I1
aI0
aI0
aa(lp1145
I4
aI0
aI0
aa(lp1146
I0
aI0
aI0
aa(lp1147
I0
aI0
aI0
aa(lp1148
I2
aI0
aI0
aa(lp1149
I0
aI0
aI0
aa(lp1150
I2
aI0
aI0
aa(lp1151
I0
aI0
aI0
aa(lp1152
I0
aI0
aI0
aa(lp1153
I3
aI1
aI1
aa(lp1154
I0
aI0
aI0
aa(lp1155
I1
aI0
aI0
aa(lp1156
I3
aI2
aI1
aa(lp1157
I0
aI0
aI0
aa(lp1158
I1
aI0
aI0
aa(lp1159
I0
aI0
aI0
aa(lp1160
I0
aI0
aI0
aa(lp1161
I0
aI0
aI0
aa(lp1162
I2
aI0
aI0
aa(lp1163
I0
aI0
aI0
aa(lp1164
I2
aI2
aI1
aa(lp1165
I1
aI0
aI0
aa(lp1166
I0
aI0
aI0
aa(lp1167
I0
aI0
aI0
aa(lp1168
I0
aI0
aI0
aa(lp1169
I1
aI0
aI0
aa(lp1170
I2
aI1
aI1
aa(lp1171
I0
aI0
aI0
aa(lp1172
I0
aI0
aI0
aa(lp1173
I1
aI1
aI1
aa(lp1174
I0
aI0
aI0
aa(lp1175
I0
aI0
aI0
aa(lp1176
I0
aI0
aI0
aa(lp1177
I1
aI0
aI0
aa(lp1178
I0
aI0
aI0
aa(lp1179
I0
aI0
aI0
aa(lp1180
I0
aI0
aI0
aa(lp1181
I0
aI0
aI0
aa(lp1182
I0
aI0
aI0
aa(lp1183
I3
aI1
aI1
aa(lp1184
I1
aI0
aI0
aa(lp1185
I0
aI0
aI0
aa(lp1186
I3
aI1
aI0
aa(lp1187
I0
aI0
aI0
aa(lp1188
I1
aI1
aI1
aa(lp1189
I5
aI3
aI0
aa(lp1190
I0
aI0
aI0
aa(lp1191
I1
aI1
aI1
aa(lp1192
I0
aI0
aI0
aa(lp1193
I1
aI0
aI0
aa(lp1194
I4
aI1
aI0
aa(lp1195
I3
aI3
aI1
aa(lp1196
I0
aI0
aI0
aa(lp1197
I0
aI0
aI0
aa(lp1198
I1
aI0
aI0
aa(lp1199
I0
aI0
aI0
aa(lp1200
I1
aI1
aI1
aa(lp1201
I1
aI0
aI0
aa(lp1202
I0
aI0
aI0
aa(lp1203
I1
aI1
aI1
aa(lp1204
I0
aI0
aI0
aa(lp1205
I3
aI2
aI1
aa(lp1206
I2
aI2
aI1
aa(lp1207
I1
aI0
aI0
aa(lp1208
I0
aI0
aI0
aa(lp1209
I0
aI0
aI0
aa(lp1210
I1
aI0
aI0
aa(lp1211
I2
aI1
aI0
aa(lp1212
I0
aI0
aI0
aa(lp1213
I0
aI0
aI0
aa(lp1214
I0
aI0
aI0
aa(lp1215
I0
aI0
aI0
aa(lp1216
I0
aI0
aI0
aa(lp1217
I1
aI0
aI0
aa(lp1218
I1
aI0
aI0
aa(lp1219
I0
aI0
aI0
aa(lp1220
I1
aI0
aI0
aa(lp1221
I2
aI1
aI1
aa(lp1222
I0
aI0
aI0
aa(lp1223
I1
aI0
aI0
aa(lp1224
I4
aI0
aI0
aa(lp1225
I4
aI1
aI0
aa(lp1226
I0
aI0
aI0
aa(lp1227
I1
aI0
aI0
aa(lp1228
I0
aI0
aI0
aa(lp1229
I0
aI0
aI0
aa(lp1230
I3
aI1
aI0
aa(lp1231
I1
aI0
aI0
aa(lp1232
I2
aI1
aI0
aa(lp1233
I2
aI0
aI0
aa(lp1234
I0
aI0
aI0
aa(lp1235
I1
aI1
aI1
aa(lp1236
I1
aI0
aI0
aa(lp1237
I1
aI0
aI0
aa(lp1238
I0
aI0
aI0
aa(lp1239
I0
aI0
aI0
aa(lp1240
I0
aI0
aI0
aa(lp1241
I0
aI0
aI0
aa(lp1242
I1
aI1
aI1
aa(lp1243
I0
aI0
aI0
aa(lp1244
I0
aI0
aI0
aa(lp1245
I1
aI0
aI0
aa(lp1246
I0
aI0
aI0
aa(lp1247
I1
aI1
aI1
aa(lp1248
I1
aI1
aI1
aa(lp1249
I3
aI0
aI0
aa(lp1250
I1
aI0
aI0
aa(lp1251
I3
aI0
aI0
aa(lp1252
I2
aI0
aI0
aa(lp1253
I0
aI0
aI0
aa(lp1254
I1
aI0
aI0
aa(lp1255
I0
aI0
aI0
aa(lp1256
I1
aI0
aI0
aa(lp1257
I1
aI0
aI0
aa(lp1258
I2
aI0
aI0
aa(lp1259
I2
aI2
aI1
aa(lp1260
I0
aI0
aI0
aa(lp1261
I1
aI0
aI0
aa(lp1262
I1
aI0
aI0
aa(lp1263
I4
aI0
aI0
aa(lp1264
I0
aI0
aI0
aa(lp1265
I0
aI0
aI0
aa(lp1266
I0
aI0
aI0
aa(lp1267
I2
aI2
aI1
aa(lp1268
I1
aI0
aI0
aa(lp1269
I2
aI0
aI0
aa(lp1270
I1
aI0
aI0
aa(lp1271
I1
aI0
aI0
aa(lp1272
I1
aI0
aI0
aa(lp1273
I0
aI0
aI0
aa(lp1274
I2
aI0
aI0
aa(lp1275
I1
aI0
aI0
aa(lp1276
I0
aI0
aI0
aa(lp1277
I0
aI0
aI0
aa(lp1278
I1
aI0
aI0
aa(lp1279
I1
aI0
aI0
aa(lp1280
I0
aI0
aI0
aa(lp1281
I1
aI0
aI0
aa(lp1282
I0
aI0
aI0
aa(lp1283
I0
aI0
aI0
aa(lp1284
I0
aI0
aI0
aa(lp1285
I0
aI0
aI0
aa(lp1286
I1
aI0
aI0
aa(lp1287
I2
aI0
aI0
aa(lp1288
I0
aI0
aI0
aa(lp1289
I0
aI0
aI0
aa(lp1290
I4
aI3
aI1
aa(lp1291
I1
aI0
aI0
aa(lp1292
I0
aI0
aI0
aa(lp1293
I0
aI0
aI0
aa(lp1294
I0
aI0
aI0
aa(lp1295
I0
aI0
aI0
aa(lp1296
I1
aI1
aI1
aa(lp1297
I0
aI0
aI0
aa(lp1298
I0
aI0
aI0
aa(lp1299
I1
aI0
aI0
aa(lp1300
I1
aI1
aI1
aa(lp1301
I0
aI0
aI0
aa(lp1302
I0
aI0
aI0
aa(lp1303
I1
aI0
aI0
aa(lp1304
I2
aI0
aI0
aa(lp1305
I4
aI1
aI0
aa(lp1306
I6
aI0
aI0
aa(lp1307
I0
aI0
aI0
aa(lp1308
I1
aI0
aI0
aa(lp1309
I0
aI0
aI0
aa(lp1310
I1
aI0
aI0
aa(lp1311
I1
aI0
aI0
aa(lp1312
I0
aI0
aI0
aa(lp1313
I0
aI0
aI0
aa(lp1314
I0
aI0
aI0
aa(lp1315
I1
aI0
aI0
aa(lp1316
I0
aI0
aI0
aa(lp1317
I0
aI0
aI0
aa(lp1318
I0
aI0
aI0
aa(lp1319
I0
aI0
aI0
aa(lp1320
I6
aI2
aI0
aa(lp1321
I0
aI0
aI0
aa(lp1322
I0
aI0
aI0
aa(lp1323
I1
aI0
aI0
aa(lp1324
I2
aI0
aI0
aa(lp1325
I0
aI0
aI0
aa(lp1326
I3
aI1
aI0
aa(lp1327
I2
aI0
aI0
aa(lp1328
I0
aI0
aI0
aa(lp1329
I1
aI0
aI0
aa(lp1330
I1
aI0
aI0
aa(lp1331
I1
aI0
aI0
aa(lp1332
I2
aI0
aI0
aa(lp1333
I0
aI0
aI0
aa(lp1334
I0
aI0
aI0
aa(lp1335
I0
aI0
aI0
aa(lp1336
I0
aI0
aI0
aa(lp1337
I1
aI0
aI0
aa(lp1338
I0
aI0
aI0
aa(lp1339
I1
aI1
aI1
aa(lp1340
I3
aI0
aI0
aa(lp1341
I2
aI0
aI0
aa(lp1342
I5
aI0
aI0
aa(lp1343
I1
aI0
aI0
aa(lp1344
I1
aI0
aI0
aa(lp1345
I1
aI0
aI0
aa(lp1346
I3
aI2
aI1
aa(lp1347
I2
aI1
aI1
aa(lp1348
I1
aI0
aI0
aa(lp1349
I1
aI0
aI0
aa(lp1350
I2
aI0
aI0
aa(lp1351
I0
aI0
aI0
aa(lp1352
I1
aI0
aI0
aa(lp1353
I0
aI0
aI0
aa(lp1354
I2
aI0
aI0
aa(lp1355
I0
aI0
aI0
aa(lp1356
I2
aI0
aI0
aa(lp1357
I4
aI2
aI1
aa(lp1358
I0
aI0
aI0
aa(lp1359
I0
aI0
aI0
aa(lp1360
I0
aI0
aI0
aa(lp1361
I3
aI1
aI0
aa(lp1362
I1
aI0
aI0
aa(lp1363
I1
aI0
aI0
aa(lp1364
I3
aI0
aI0
aa(lp1365
I2
aI1
aI1
aa(lp1366
I4
aI2
aI1
aa(lp1367
I1
aI0
aI0
aa(lp1368
I2
aI1
aI1
aa(lp1369
I1
aI0
aI0
aa(lp1370
I2
aI1
aI1
aa(lp1371
I0
aI0
aI0
aa(lp1372
I0
aI0
aI0
aa(lp1373
I0
aI0
aI0
aa(lp1374
I0
aI0
aI0
aa(lp1375
I0
aI0
aI0
aa(lp1376
I3
aI0
aI0
aa(lp1377
I0
aI0
aI0
aa(lp1378
I1
aI1
aI1
aa(lp1379
I0
aI0
aI0
aa(lp1380
I4
aI1
aI0
aa(lp1381
I0
aI0
aI0
aa(lp1382
I1
aI0
aI0
aa(lp1383
I5
aI4
aI1
aa(lp1384
I3
aI1
aI0
aa(lp1385
I7
aI3
aI1
aa(lp1386
I0
aI0
aI0
aa(lp1387
I3
aI1
aI0
aa(lp1388
I1
aI1
aI1
aa(lp1389
I0
aI0
aI0
aa(lp1390
I0
aI0
aI0
aa(lp1391
I1
aI0
aI0
aa(lp1392
I3
aI1
aI0
aa(lp1393
I6
aI1
aI0
aa(lp1394
I0
aI0
aI0
aa(lp1395
I0
aI0
aI0
aa(lp1396
I0
aI0
aI0
aa(lp1397
I1
aI0
aI0
aa(lp1398
I1
aI0
aI0
aa(lp1399
I1
aI1
aI1
aa(lp1400
I1
aI0
aI0
aa(lp1401
I0
aI0
aI0
aa(lp1402
I1
aI0
aI0
aa(lp1403
I0
aI0
aI0
aa(lp1404
I0
aI0
aI0
aa(lp1405
I1
aI0
aI0
aa(lp1406
I1
aI1
aI1
aa(lp1407
I2
aI1
aI1
aa(lp1408
I4
aI2
aI1
aa(lp1409
I7
aI2
aI1
aa(lp1410
I2
aI2
aI1
aa(lp1411
I0
aI0
aI0
aa(lp1412
I5
aI3
aI0
aa(lp1413
I0
aI0
aI0
aa(lp1414
I1
aI0
aI0
aa(lp1415
I2
aI1
aI0
aa(lp1416
I1
aI0
aI0
aa(lp1417
I2
aI1
aI1
aa(lp1418
I3
aI0
aI0
aa(lp1419
I7
aI0
aI0
aa(lp1420
I0
aI0
aI0
aa(lp1421
I2
aI0
aI0
aa(lp1422
I1
aI0
aI0
aa(lp1423
I5
aI1
aI0
aa(lp1424
I4
aI0
aI0
aa(lp1425
I1
aI0
aI0
aa(lp1426
I3
aI0
aI0
aa(lp1427
I3
aI3
aI1
aa(lp1428
I3
aI1
aI0
aa(lp1429
I1
aI1
aI1
aa(lp1430
I6
aI0
aI0
aa(lp1431
I7
aI0
aI0
aa(lp1432
I4
aI0
aI0
aa(lp1433
I6
aI1
aI0
aa(lp1434
I1
aI0
aI0
aa(lp1435
I4
aI0
aI0
aa(lp1436
I1
aI0
aI0
aa(lp1437
I1
aI1
aI1
aa(lp1438
I0
aI0
aI0
aa(lp1439
I1
aI0
aI0
aa(lp1440
I0
aI0
aI0
aa(lp1441
I4
aI0
aI0
aa(lp1442
I4
aI0
aI0
aa(lp1443
I0
aI0
aI0
aa(lp1444
I2
aI1
aI1
aa(lp1445
I0
aI0
aI0
aa(lp1446
I4
aI4
aI1
aa(lp1447
I4
aI0
aI0
aa(lp1448
I0
aI0
aI0
aa(lp1449
I1
aI0
aI0
aa(lp1450
I2
aI2
aI1
aa(lp1451
I1
aI0
aI0
aa(lp1452
I5
aI0
aI0
aa(lp1453
I1
aI0
aI0
aa(lp1454
I1
aI0
aI0
aa(lp1455
I0
aI0
aI0
aa(lp1456
I0
aI0
aI0
aa(lp1457
I2
aI0
aI0
aa(lp1458
I4
aI0
aI0
aa(lp1459
I1
aI1
aI1
aa(lp1460
I2
aI1
aI1
aa(lp1461
I1
aI0
aI0
aa(lp1462
I6
aI5
aI1
aa(lp1463
I7
aI0
aI0
aa(lp1464
I5
aI0
aI0
aa(lp1465
I1
aI0
aI0
aa(lp1466
I1
aI1
aI1
aa(lp1467
I1
aI0
aI0
aa(lp1468
I2
aI0
aI0
aa(lp1469
I2
aI0
aI0
aa(lp1470
I1
aI1
aI1
aa(lp1471
I1
aI0
aI0
aa(lp1472
I3
aI0
aI0
aa(lp1473
I0
aI0
aI0
aa(lp1474
I1
aI0
aI0
aa(lp1475
I0
aI0
aI0
aa(lp1476
I0
aI0
aI0
aa(lp1477
I2
aI1
aI1
aa(lp1478
I3
aI1
aI1
aa(lp1479
I0
aI0
aI0
aa(lp1480
I0
aI0
aI0
aa(lp1481
I1
aI0
aI0
aa(lp1482
I2
aI1
aI1
aa(lp1483
I0
aI0
aI0
aa(lp1484
I0
aI0
aI0
aa(lp1485
I4
aI0
aI0
aa(lp1486
I0
aI0
aI0
aa(lp1487
I1
aI0
aI0
aa(lp1488
I0
aI0
aI0
aa(lp1489
I0
aI0
aI0
aa(lp1490
I0
aI0
aI0
aa(lp1491
I0
aI0
aI0
aa(lp1492
I0
aI0
aI0
aa(lp1493
I0
aI0
aI0
aa(lp1494
I0
aI0
aI0
aa(lp1495
I0
aI0
aI0
aa(lp1496
I2
aI0
aI0
aa(lp1497
I1
aI0
aI0
aa(lp1498
I0
aI0
aI0
aa(lp1499
I4
aI0
aI0
aa(lp1500
I0
aI0
aI0
aa(lp1501
I0
aI0
aI0
aa(lp1502
I7
aI1
aI0
aa(lp1503
I0
aI0
aI0
aa(lp1504
I0
aI0
aI0
aa(lp1505
I6
aI0
aI0
aa(lp1506
I7
aI1
aI1
aa(lp1507
I2
aI0
aI0
aa(lp1508
I1
aI0
aI0
aa(lp1509
I1
aI0
aI0
aa(lp1510
I3
aI0
aI0
aa(lp1511
I0
aI0
aI0
aa(lp1512
I5
aI3
aI1
aa(lp1513
I1
aI0
aI0
aa(lp1514
I0
aI0
aI0
aa(lp1515
I4
aI1
aI0
aa(lp1516
I0
aI0
aI0
aa(lp1517
I3
aI2
aI1
aa(lp1518
I2
aI0
aI0
aa(lp1519
I5
aI1
aI0
aa(lp1520
I0
aI0
aI0
aa(lp1521
I8
aI1
aI0
aa(lp1522
I9
aI1
aI0
aa(lp1523
I0
aI0
aI0
aa(lp1524
I1
aI1
aI1
aa(lp1525
I2
aI1
aI1
aa(lp1526
I0
aI0
aI0
aa(lp1527
I0
aI0
aI0
aa(lp1528
I1
aI1
aI1
aa(lp1529
I8
aI3
aI0
aa(lp1530
I0
aI0
aI0
aa(lp1531
I0
aI0
aI0
aa(lp1532
I2
aI0
aI0
aa(lp1533
I1
aI0
aI0
aa(lp1534
I0
aI0
aI0
aa(lp1535
I2
aI0
aI0
aa(lp1536
I0
aI0
aI0
aa(lp1537
I1
aI0
aI0
aa(lp1538
I0
aI0
aI0
aa(lp1539
I1
aI0
aI0
aa(lp1540
I1
aI1
aI1
aa(lp1541
I0
aI0
aI0
aa(lp1542
I8
aI3
aI1
aa(lp1543
I0
aI0
aI0
aa(lp1544
I1
aI1
aI1
aa(lp1545
I2
aI0
aI0
aa(lp1546
I0
aI0
aI0
aa(lp1547
I2
aI1
aI1
aa(lp1548
I3
aI0
aI0
aa(lp1549
I0
aI0
aI0
aa(lp1550
I3
aI1
aI1
aa(lp1551
I1
aI0
aI0
aa(lp1552
I3
aI0
aI0
aa(lp1553
I2
aI0
aI0
aa(lp1554
I2
aI0
aI0
aa(lp1555
I4
aI0
aI0
aa(lp1556
I4
aI1
aI0
aa(lp1557
I0
aI0
aI0
aa(lp1558
I1
aI0
aI0
aa(lp1559
I2
aI0
aI0
aa(lp1560
I0
aI0
aI0
aa(lp1561
I5
aI1
aI0
aa(lp1562
I0
aI0
aI0
aa(lp1563
I1
aI1
aI1
aa(lp1564
I0
aI0
aI0
aa(lp1565
I1
aI0
aI0
aa(lp1566
I1
aI1
aI1
aa(lp1567
I3
aI0
aI0
aa(lp1568
I1
aI0
aI0
aa(lp1569
I0
aI0
aI0
aa(lp1570
I0
aI0
aI0
aa(lp1571
I0
aI0
aI0
aa(lp1572
I0
aI0
aI0
aa(lp1573
I2
aI1
aI1
aa(lp1574
I2
aI0
aI0
aa(lp1575
I1
aI1
aI1
aa(lp1576
I5
aI1
aI0
aa(lp1577
I1
aI0
aI0
aa(lp1578
I1
aI0
aI0
aa(lp1579
I5
aI4
aI0
aa(lp1580
I2
aI0
aI0
aa(lp1581
I2
aI1
aI1
aa(lp1582
I2
aI0
aI0
aa(lp1583
I0
aI0
aI0
aa(lp1584
I0
aI0
aI0
aa(lp1585
I0
aI0
aI0
aa(lp1586
I5
aI0
aI0
aa(lp1587
I0
aI0
aI0
aa(lp1588
I0
aI0
aI0
aa(lp1589
I0
aI0
aI0
aa(lp1590
I1
aI1
aI1
aa(lp1591
I0
aI0
aI0
aa(lp1592
I1
aI0
aI0
aa(lp1593
I0
aI0
aI0
aa(lp1594
I2
aI0
aI0
aa(lp1595
I0
aI0
aI0
aa(lp1596
I1
aI1
aI1
aa(lp1597
I0
aI0
aI0
aa(lp1598
I2
aI2
aI1
aa(lp1599
I0
aI0
aI0
aa(lp1600
I6
aI0
aI0
aa(lp1601
I2
aI0
aI0
aa(lp1602
I5
aI2
aI1
aa(lp1603
I1
aI0
aI0
aa(lp1604
I3
aI1
aI1
aa(lp1605
I6
aI4
aI1
aa(lp1606
I1
aI1
aI1
aa(lp1607
I0
aI0
aI0
aa(lp1608
I3
aI3
aI1
aa(lp1609
I0
aI0
aI0
aa(lp1610
I1
aI0
aI0
aa(lp1611
I0
aI0
aI0
aa(lp1612
I0
aI0
aI0
aa(lp1613
I1
aI0
aI0
aa(lp1614
I1
aI1
aI1
aa(lp1615
I6
aI2
aI0
aa(lp1616
I2
aI0
aI0
aa(lp1617
I10
aI1
aI0
aa(lp1618
I1
aI0
aI0
aa(lp1619
I0
aI0
aI0
aa(lp1620
I5
aI1
aI1
aa(lp1621
I4
aI0
aI0
aa(lp1622
I2
aI0
aI0
aa(lp1623
I8
aI0
aI0
aa(lp1624
I1
aI1
aI1
aa(lp1625
I2
aI0
aI0
aa(lp1626
I5
aI0
aI0
aa(lp1627
I0
aI0
aI0
aa(lp1628
I0
aI0
aI0
aa(lp1629
I4
aI2
aI1
aa(lp1630
I1
aI0
aI0
aa(lp1631
I7
aI5
aI0
aa(lp1632
I1
aI0
aI0
aa(lp1633
I2
aI0
aI0
aa(lp1634
I1
aI1
aI1
aa(lp1635
I0
aI0
aI0
aa(lp1636
I5
aI1
aI0
aa(lp1637
I5
aI1
aI0
aa(lp1638
I8
aI1
aI0
aa(lp1639
I6
aI2
aI1
aa(lp1640
I6
aI0
aI0
aa(lp1641
I0
aI0
aI0
aa(lp1642
I1
aI0
aI0
aa(lp1643
I2
aI2
aI1
aa(lp1644
I6
aI0
aI0
aa(lp1645
I2
aI0
aI0
aa(lp1646
I4
aI2
aI1
aa(lp1647
I0
aI0
aI0
aa(lp1648
I0
aI0
aI0
aa(lp1649
I0
aI0
aI0
aa(lp1650
I0
aI0
aI0
aa(lp1651
I0
aI0
aI0
aa(lp1652
I0
aI0
aI0
aa(lp1653
I0
aI0
aI0
aa(lp1654
I1
aI1
aI1
aa(lp1655
I2
aI0
aI0
aa(lp1656
I0
aI0
aI0
aa(lp1657
I0
aI0
aI0
aa(lp1658
I0
aI0
aI0
aa(lp1659
I4
aI2
aI1
aa(lp1660
I1
aI0
aI0
aa(lp1661
I0
aI0
aI0
aa(lp1662
I1
aI0
aI0
aa(lp1663
I0
aI0
aI0
aa(lp1664
I1
aI0
aI0
aa(lp1665
I2
aI2
aI1
aa(lp1666
I2
aI0
aI0
aa(lp1667
I5
aI0
aI0
aa(lp1668
I2
aI0
aI0
aa(lp1669
I1
aI0
aI0
aa(lp1670
I1
aI0
aI0
aa(lp1671
I0
aI0
aI0
aa(lp1672
I1
aI0
aI0
aa(lp1673
I1
aI0
aI0
aa(lp1674
I0
aI0
aI0
aa(lp1675
I0
aI0
aI0
aa(lp1676
I1
aI0
aI0
aa(lp1677
I0
aI0
aI0
aa(lp1678
I0
aI0
aI0
aa(lp1679
I0
aI0
aI0
aa(lp1680
I0
aI0
aI0
aa(lp1681
I1
aI0
aI0
aa(lp1682
I0
aI0
aI0
aa(lp1683
I4
aI0
aI0
aa(lp1684
I3
aI3
aI1
aa(lp1685
I0
aI0
aI0
aa(lp1686
I1
aI0
aI0
aa(lp1687
I0
aI0
aI0
aa(lp1688
I2
aI0
aI0
aa(lp1689
I0
aI0
aI0
aa(lp1690
I3
aI1
aI1
aa(lp1691
I0
aI0
aI0
aa(lp1692
I3
aI0
aI0
aa(lp1693
I0
aI0
aI0
aa(lp1694
I3
aI0
aI0
aa(lp1695
I0
aI0
aI0
aa(lp1696
I0
aI0
aI0
aa(lp1697
I1
aI1
aI1
aa(lp1698
I0
aI0
aI0
aa(lp1699
I0
aI0
aI0
aa(lp1700
I0
aI0
aI0
aa(lp1701
I3
aI2
aI0
aa(lp1702
I0
aI0
aI0
aa(lp1703
I5
aI0
aI0
aa(lp1704
I0
aI0
aI0
aa(lp1705
I5
aI0
aI0
aa(lp1706
I0
aI0
aI0
aa(lp1707
I0
aI0
aI0
aa(lp1708
I4
aI2
aI0
aa(lp1709
I1
aI0
aI0
aa(lp1710
I2
aI0
aI0
aa(lp1711
I0
aI0
aI0
aa(lp1712
I0
aI0
aI0
aa(lp1713
I5
aI2
aI0
aa(lp1714
I1
aI0
aI0
aa(lp1715
I0
aI0
aI0
aa(lp1716
I2
aI1
aI1
aa(lp1717
I0
aI0
aI0
aa(lp1718
I0
aI0
aI0
aa(lp1719
I1
aI0
aI0
aa(lp1720
I2
aI2
aI1
aa(lp1721
I2
aI1
aI1
aa(lp1722
I1
aI0
aI0
aa(lp1723
I1
aI1
aI1
aa(lp1724
I5
aI0
aI0
aa(lp1725
I0
aI0
aI0
aa(lp1726
I0
aI0
aI0
aa(lp1727
I0
aI0
aI0
aa(lp1728
I0
aI0
aI0
aa(lp1729
I0
aI0
aI0
aa(lp1730
I0
aI0
aI0
aa(lp1731
I1
aI1
aI1
aa(lp1732
I0
aI0
aI0
aa(lp1733
I0
aI0
aI0
aa(lp1734
I3
aI0
aI0
aa(lp1735
I0
aI0
aI0
aa(lp1736
I1
aI0
aI0
aa(lp1737
I0
aI0
aI0
aa(lp1738
I0
aI0
aI0
aa(lp1739
I0
aI0
aI0
aa(lp1740
I4
aI0
aI0
aa(lp1741
I6
aI3
aI0
aa(lp1742
I0
aI0
aI0
aa(lp1743
I0
aI0
aI0
aa(lp1744
I4
aI2
aI1
aa(lp1745
I0
aI0
aI0
aa(lp1746
I0
aI0
aI0
aa(lp1747
I0
aI0
aI0
aa(lp1748
I1
aI0
aI0
aa(lp1749
I0
aI0
aI0
aa(lp1750
I0
aI0
aI0
aa(lp1751
I0
aI0
aI0
aa(lp1752
I1
aI1
aI1
aa(lp1753
I0
aI0
aI0
aa(lp1754
I0
aI0
aI0
aa(lp1755
I1
aI0
aI0
aa(lp1756
I0
aI0
aI0
aa(lp1757
I0
aI0
aI0
aa(lp1758
I1
aI0
aI0
aa(lp1759
I0
aI0
aI0
aa(lp1760
I3
aI0
aI0
aa(lp1761
I0
aI0
aI0
aa(lp1762
I2
aI0
aI0
aa(lp1763
I1
aI1
aI1
aa(lp1764
I2
aI2
aI1
aa(lp1765
I0
aI0
aI0
aa(lp1766
I1
aI0
aI0
aa(lp1767
I1
aI0
aI0
aa(lp1768
I0
aI0
aI0
aa(lp1769
I2
aI0
aI0
aa(lp1770
I2
aI1
aI0
aa(lp1771
I1
aI1
aI1
aa(lp1772
I0
aI0
aI0
aa(lp1773
I2
aI1
aI1
aa(lp1774
I0
aI0
aI0
aa(lp1775
I4
aI0
aI0
aa(lp1776
I1
aI0
aI0
aa(lp1777
I0
aI0
aI0
aa(lp1778
I1
aI0
aI0
aa(lp1779
I4
aI4
aI1
aa(lp1780
I2
aI1
aI0
aa(lp1781
I1
aI1
aI1
aa(lp1782
I2
aI2
aI1
aa(lp1783
I0
aI0
aI0
aa(lp1784
I0
aI0
aI0
aa(lp1785
I0
aI0
aI0
aa(lp1786
I0
aI0
aI0
aa(lp1787
I1
aI1
aI1
aa(lp1788
I0
aI0
aI0
aa(lp1789
I0
aI0
aI0
aa(lp1790
I1
aI1
aI1
aa(lp1791
I0
aI0
aI0
aa(lp1792
I0
aI0
aI0
aa(lp1793
I0
aI0
aI0
aa(lp1794
I0
aI0
aI0
aa(lp1795
I0
aI0
aI0
aa(lp1796
I3
aI0
aI0
aa(lp1797
I2
aI0
aI0
aa(lp1798
I1
aI0
aI0
aa(lp1799
I2
aI2
aI1
aa(lp1800
I0
aI0
aI0
aa(lp1801
I0
aI0
aI0
aa(lp1802
I2
aI1
aI1
aa(lp1803
I0
aI0
aI0
aa(lp1804
I1
aI1
aI1
aa(lp1805
I0
aI0
aI0
aa(lp1806
I2
aI2
aI1
aa(lp1807
I0
aI0
aI0
aa(lp1808
I1
aI1
aI1
aa(lp1809
I5
aI3
aI1
aa(lp1810
I1
aI0
aI0
aa(lp1811
I1
aI0
aI0
aa(lp1812
I1
aI0
aI0
aa(lp1813
I1
aI0
aI0
aa(lp1814
I8
aI0
aI0
aa(lp1815
I3
aI0
aI0
aa(lp1816
I2
aI0
aI0
aa(lp1817
I1
aI0
aI0
aa(lp1818
I0
aI0
aI0
aa(lp1819
I1
aI0
aI0
aa(lp1820
I0
aI0
aI0
aa(lp1821
I5
aI5
aI1
aa(lp1822
I1
aI0
aI0
aa(lp1823
I2
aI0
aI0
aa(lp1824
I0
aI0
aI0
aa(lp1825
I3
aI3
aI1
aa(lp1826
I5
aI5
aI1
aa(lp1827
I0
aI0
aI0
aa(lp1828
I0
aI0
aI0
aa(lp1829
I0
aI0
aI0
aa(lp1830
I4
aI1
aI1
aa(lp1831
I2
aI2
aI1
aa(lp1832
I1
aI0
aI0
aa(lp1833
I1
aI0
aI0
aa(lp1834
I2
aI1
aI1
aa(lp1835
I0
aI0
aI0
aa(lp1836
I1
aI0
aI0
aa(lp1837
I0
aI0
aI0
aa(lp1838
I2
aI2
aI1
aa(lp1839
I1
aI0
aI0
aa(lp1840
I0
aI0
aI0
aa(lp1841
I5
aI1
aI0
aa(lp1842
I11
aI1
aI0
aa(lp1843
I1
aI0
aI0
aa(lp1844
I4
aI3
aI1
aa(lp1845
I0
aI0
aI0
aa(lp1846
I1
aI0
aI0
aa(lp1847
I1
aI0
aI0
aa(lp1848
I5
aI0
aI0
aa(lp1849
I0
aI0
aI0
aa(lp1850
I1
aI0
aI0
aa(lp1851
I4
aI3
aI1
aa(lp1852
I1
aI0
aI0
aa(lp1853
I2
aI1
aI1
aa(lp1854
I1
aI0
aI0
aa(lp1855
I2
aI0
aI0
aa(lp1856
I2
aI1
aI0
aa(lp1857
I4
aI1
aI1
aa(lp1858
I1
aI0
aI0
aa(lp1859
I2
aI0
aI0
aa(lp1860
I0
aI0
aI0
aa(lp1861
I3
aI1
aI0
aa(lp1862
I1
aI0
aI0
aa(lp1863
I2
aI0
aI0
aa(lp1864
I3
aI0
aI0
aa(lp1865
I3
aI1
aI0
aa(lp1866
I8
aI0
aI0
aa(lp1867
I4
aI0
aI0
aa(lp1868
I2
aI1
aI0
aa(lp1869
I1
aI0
aI0
aa(lp1870
I1
aI0
aI0
aa(lp1871
I6
aI4
aI0
aa(lp1872
I0
aI0
aI0
aa(lp1873
I7
aI2
aI0
aa(lp1874
I2
aI2
aI1
aa(lp1875
I2
aI1
aI1
aa(lp1876
I3
aI2
aI1
aa(lp1877
I1
aI0
aI0
aa(lp1878
I3
aI3
aI1
aa(lp1879
I3
aI0
aI0
aa(lp1880
I1
aI0
aI0
aa(lp1881
I0
aI0
aI0
aa(lp1882
I5
aI0
aI0
aa(lp1883
I4
aI0
aI0
aa(lp1884
I1
aI0
aI0
aa(lp1885
I1
aI0
aI0
aa(lp1886
I6
aI4
aI1
aa(lp1887
I3
aI2
aI0
aa(lp1888
I1
aI0
aI0
aa(lp1889
I3
aI0
aI0
aa(lp1890
I6
aI1
aI0
aa(lp1891
I6
aI5
aI0
aa(lp1892
I3
aI0
aI0
aa(lp1893
I9
aI1
aI1
aa(lp1894
I3
aI1
aI0
aa(lp1895
I6
aI1
aI0
aa(lp1896
I1
aI0
aI0
aa(lp1897
I0
aI0
aI0
aa(lp1898
I0
aI0
aI0
aa(lp1899
I3
aI3
aI1
aa(lp1900
I3
aI1
aI1
aa(lp1901
I2
aI0
aI0
aa(lp1902
I2
aI0
aI0
aa(lp1903
I7
aI0
aI0
aa(lp1904
I1
aI0
aI0
aa(lp1905
I4
aI3
aI1
aa(lp1906
I1
aI0
aI0
aa(lp1907
I6
aI0
aI0
aa(lp1908
I5
aI0
aI0
aa(lp1909
I12
aI1
aI0
aa(lp1910
I4
aI0
aI0
aa(lp1911
I3
aI1
aI1
aa(lp1912
I4
aI0
aI0
aa(lp1913
I1
aI0
aI0
aa(lp1914
I3
aI1
aI0
aa(lp1915
I1
aI0
aI0
aa(lp1916
I6
aI0
aI0
aa(lp1917
I0
aI0
aI0
aa(lp1918
I1
aI0
aI0
aa(lp1919
I2
aI0
aI0
aa(lp1920
I1
aI0
aI0
aa(lp1921
I3
aI1
aI0
aa(lp1922
I5
aI0
aI0
aa(lp1923
I1
aI0
aI0
aa(lp1924
I2
aI0
aI0
aa(lp1925
I1
aI0
aI0
aa(lp1926
I1
aI0
aI0
aa(lp1927
I2
aI0
aI0
aa(lp1928
I2
aI0
aI0
aa(lp1929
I0
aI0
aI0
aa(lp1930
I3
aI1
aI0
aa(lp1931
I7
aI0
aI0
aa(lp1932
I6
aI0
aI0
aa(lp1933
I1
aI0
aI0
aa(lp1934
I6
aI3
aI0
aa(lp1935
I2
aI1
aI1
aa(lp1936
I2
aI1
aI0
aa(lp1937
I2
aI0
aI0
aa(lp1938
I1
aI0
aI0
aa(lp1939
I2
aI0
aI0
aa(lp1940
I7
aI0
aI0
aa(lp1941
I3
aI0
aI0
aa(lp1942
I1
aI0
aI0
aa(lp1943
I4
aI1
aI0
aa(lp1944
I2
aI0
aI0
aa(lp1945
I3
aI0
aI0
aa(lp1946
I1
aI0
aI0
aa(lp1947
I1
aI0
aI0
aa(lp1948
I0
aI0
aI0
aa(lp1949
I0
aI0
aI0
aa(lp1950
I6
aI0
aI0
aa(lp1951
I2
aI0
aI0
aa(lp1952
I7
aI5
aI1
aa(lp1953
I3
aI1
aI1
aa(lp1954
I4
aI4
aI1
aa(lp1955
I1
aI0
aI0
aa(lp1956
I1
aI0
aI0
aa(lp1957
I0
aI0
aI0
aa(lp1958
I1
aI0
aI0
aa(lp1959
I6
aI2
aI0
aa(lp1960
I2
aI0
aI0
aa(lp1961
I1
aI0
aI0
aa(lp1962
I2
aI1
aI1
aa(lp1963
I1
aI1
aI1
aa(lp1964
I3
aI0
aI0
aa(lp1965
I0
aI0
aI0
aa(lp1966
I0
aI0
aI0
aa(lp1967
I2
aI1
aI0
aa(lp1968
I1
aI0
aI0
aa(lp1969
I2
aI1
aI1
aa(lp1970
I2
aI0
aI0
aa(lp1971
I1
aI0
aI0
aa(lp1972
I1
aI0
aI0
aa(lp1973
I0
aI0
aI0
aa(lp1974
I0
aI0
aI0
aa(lp1975
I0
aI0
aI0
aa(lp1976
I3
aI0
aI0
aa(lp1977
I8
aI0
aI0
aa(lp1978
I2
aI0
aI0
aa(lp1979
I2
aI0
aI0
aa(lp1980
I6
aI0
aI0
aa(lp1981
I10
aI2
aI1
aa(lp1982
I2
aI1
aI1
aa(lp1983
I3
aI0
aI0
aa(lp1984
I6
aI1
aI0
aa(lp1985
I2
aI2
aI1
aa(lp1986
I1
aI0
aI0
aa(lp1987
I1
aI1
aI1
aa(lp1988
I6
aI1
aI0
aa(lp1989
I2
aI0
aI0
aa(lp1990
I6
aI2
aI0
aa(lp1991
I7
aI2
aI0
aa(lp1992
I9
aI1
aI0
aa(lp1993
I5
aI3
aI1
aa(lp1994
I1
aI0
aI0
aa(lp1995
I13
aI1
aI0
aa(lp1996
I0
aI0
aI0
aa(lp1997
I2
aI0
aI0
aa(lp1998
I3
aI0
aI0
aa(lp1999
I3
aI0
aI0
aa(lp2000
I8
aI2
aI0
aa(lp2001
I1
aI0
aI0
aa(lp2002
I2
aI0
aI0
aa(lp2003
I1
aI0
aI0
aa(lp2004
I7
aI2
aI1
aa(lp2005
I2
aI1
aI0
aa(lp2006
I0
aI0
aI0
aa(lp2007
I4
aI0
aI0
aa(lp2008
I2
aI0
aI0
aa(lp2009
I8
aI2
aI0
aa(lp2010
I0
aI0
aI0
aa(lp2011
I5
aI3
aI1
aa(lp2012
I0
aI0
aI0
aa(lp2013
I2
aI1
aI1
aa(lp2014
I1
aI0
aI0
aa(lp2015
I2
aI1
aI0
aa(lp2016
I3
aI0
aI0
aa(lp2017
I0
aI0
aI0
aa(lp2018
I4
aI0
aI0
aa(lp2019
I3
aI0
aI0
aa(lp2020
I9
aI0
aI0
aa(lp2021
I6
aI2
aI1
aa(lp2022
I2
aI0
aI0
aa(lp2023
I2
aI0
aI0
aa(lp2024
I2
aI0
aI0
aa(lp2025
I3
aI0
aI0
aa(lp2026
I4
aI1
aI1
aa(lp2027
I1
aI1
aI1
aa(lp2028
I3
aI2
aI1
aa(lp2029
I2
aI0
aI0
aa(lp2030
I0
aI0
aI0
aa(lp2031
I0
aI0
aI0
aa(lp2032
I1
aI0
aI0
aa(lp2033
I2
aI1
aI1
aa(lp2034
I4
aI1
aI0
aa(lp2035
I3
aI1
aI0
aa(lp2036
I3
aI0
aI0
aa(lp2037
I0
aI0
aI0
aa(lp2038
I0
aI0
aI0
aa(lp2039
I4
aI2
aI0
aa(lp2040
I2
aI1
aI1
aa(lp2041
I2
aI0
aI0
aa(lp2042
I1
aI0
aI0
aa(lp2043
I0
aI0
aI0
aa(lp2044
I9
aI0
aI0
aa(lp2045
I5
aI0
aI0
aa(lp2046
I3
aI2
aI0
aa(lp2047
I1
aI0
aI0
aa(lp2048
I3
aI1
aI0
aa(lp2049
I1
aI0
aI0
aa(lp2050
I10
aI0
aI0
aa(lp2051
I1
aI0
aI0
aa(lp2052
I7
aI0
aI0
aa(lp2053
I0
aI0
aI0
aa(lp2054
I3
aI0
aI0
aa(lp2055
I0
aI0
aI0
aa(lp2056
I3
aI0
aI0
aa(lp2057
I1
aI0
aI0
aa(lp2058
I0
aI0
aI0
aa(lp2059
I1
aI0
aI0
aa(lp2060
I2
aI0
aI0
aa(lp2061
I5
aI1
aI1
aa(lp2062
I3
aI0
aI0
aa(lp2063
I1
aI1
aI1
aa(lp2064
I0
aI0
aI0
aa(lp2065
I0
aI0
aI0
aa(lp2066
I0
aI0
aI0
aa(lp2067
I0
aI0
aI0
aa(lp2068
I4
aI0
aI0
aa(lp2069
I5
aI0
aI0
aa(lp2070
I1
aI0
aI0
aa(lp2071
I2
aI0
aI0
aa(lp2072
I8
aI1
aI1
aa(lp2073
I6
aI0
aI0
aa(lp2074
I3
aI0
aI0
aa(lp2075
I4
aI4
aI1
aa(lp2076
I4
aI2
aI0
aa(lp2077
I3
aI0
aI0
aa(lp2078
I4
aI0
aI0
aa(lp2079
I0
aI0
aI0
aa(lp2080
I3
aI0
aI0
aa(lp2081
I0
aI0
aI0
aa(lp2082
I1
aI0
aI0
aa(lp2083
I1
aI0
aI0
aa(lp2084
I1
aI0
aI0
aa(lp2085
I3
aI0
aI0
aa(lp2086
I1
aI0
aI0
aa(lp2087
I0
aI0
aI0
aa(lp2088
I2
aI0
aI0
aa(lp2089
I3
aI1
aI0
aa(lp2090
I2
aI0
aI0
aa(lp2091
I0
aI0
aI0
aa(lp2092
I1
aI0
aI0
aa(lp2093
I0
aI0
aI0
aa(lp2094
I0
aI0
aI0
aa(lp2095
I0
aI0
aI0
aa(lp2096
I0
aI0
aI0
aa(lp2097
I0
aI0
aI0
aa(lp2098
I0
aI0
aI0
aa(lp2099
I0
aI0
aI0
aa(lp2100
I3
aI0
aI0
aa(lp2101
I0
aI0
aI0
aa(lp2102
I0
aI0
aI0
aa(lp2103
I0
aI0
aI0
aa(lp2104
I4
aI0
aI0
aa(lp2105
I3
aI0
aI0
aa(lp2106
I2
aI1
aI0
aa(lp2107
I5
aI2
aI0
aa(lp2108
I2
aI1
aI1
aa(lp2109
I2
aI0
aI0
aa(lp2110
I0
aI0
aI0
aa(lp2111
I0
aI0
aI0
aa(lp2112
I8
aI2
aI0
aa(lp2113
I11
aI2
aI0
aa(lp2114
I1
aI0
aI0
aa(lp2115
I10
aI0
aI0
aa(lp2116
I1
aI1
aI1
aa(lp2117
I1
aI1
aI1
aa(lp2118
I0
aI0
aI0
aa(lp2119
I0
aI0
aI0
aa(lp2120
I0
aI0
aI0
aa(lp2121
I2
aI0
aI0
aa(lp2122
I7
aI0
aI0
aa(lp2123
I0
aI0
aI0
aa(lp2124
I0
aI0
aI0
aa(lp2125
I0
aI0
aI0
aa(lp2126
I1
aI0
aI0
aa(lp2127
I0
aI0
aI0
aa(lp2128
I0
aI0
aI0
aa(lp2129
I0
aI0
aI0
aa(lp2130
I0
aI0
aI0
aa(lp2131
I2
aI1
aI0
aa(lp2132
I0
aI0
aI0
aa(lp2133
I3
aI3
aI1
aa(lp2134
I2
aI0
aI0
aa(lp2135
I0
aI0
aI0
aa(lp2136
I4
aI0
aI0
aa(lp2137
I1
aI0
aI0
aa(lp2138
I5
aI2
aI0
aa(lp2139
I4
aI1
aI0
aa(lp2140
I0
aI0
aI0
aa(lp2141
I1
aI1
aI1
aa(lp2142
I4
aI0
aI0
aa(lp2143
I5
aI5
aI1
aa(lp2144
I1
aI0
aI0
aa(lp2145
I1
aI0
aI0
aa(lp2146
I3
aI0
aI0
aa(lp2147
I0
aI0
aI0
aa(lp2148
I14
aI1
aI0
aa(lp2149
I4
aI2
aI1
aa(lp2150
I3
aI3
aI1
aa(lp2151
I3
aI1
aI0
aa(lp2152
I0
aI0
aI0
aa(lp2153
I0
aI0
aI0
aa(lp2154
I0
aI0
aI0
aa(lp2155
I0
aI0
aI0
aa(lp2156
I0
aI0
aI0
aa(lp2157
I3
aI2
aI0
aa(lp2158
I0
aI0
aI0
aa(lp2159
I1
aI0
aI0
aa(lp2160
I2
aI1
aI1
aa(lp2161
I1
aI0
aI0
aa(lp2162
I3
aI1
aI1
aa(lp2163
I2
aI0
aI0
aa(lp2164
I2
aI0
aI0
aa(lp2165
I0
aI0
aI0
aa(lp2166
I0
aI0
aI0
aa(lp2167
I0
aI0
aI0
aa(lp2168
I0
aI0
aI0
aa(lp2169
I1
aI0
aI0
aa(lp2170
I2
aI1
aI0
aa(lp2171
I3
aI0
aI0
aa(lp2172
I4
aI2
aI1
aa(lp2173
I2
aI0
aI0
aa(lp2174
I2
aI0
aI0
aa(lp2175
I2
aI0
aI0
aa(lp2176
I3
aI0
aI0
aa(lp2177
I7
aI0
aI0
aa(lp2178
I7
aI1
aI0
aa(lp2179
I4
aI4
aI1
aa(lp2180
I3
aI2
aI1
aa(lp2181
I2
aI0
aI0
aa(lp2182
I0
aI0
aI0
aa(lp2183
I4
aI1
aI0
aa(lp2184
I3
aI1
aI0
aa(lp2185
I2
aI0
aI0
aa(lp2186
I3
aI2
aI1
aa(lp2187
I5
aI0
aI0
aa(lp2188
I2
aI1
aI1
aa(lp2189
I2
aI0
aI0
aa(lp2190
I9
aI2
aI0
aa(lp2191
I4
aI0
aI0
aa(lp2192
I0
aI0
aI0
aa(lp2193
I1
aI0
aI0
aa(lp2194
I0
aI0
aI0
aa(lp2195
I2
aI0
aI0
aa(lp2196
I0
aI0
aI0
aa(lp2197
I3
aI0
aI0
aa(lp2198
I4
aI1
aI1
aa(lp2199
I0
aI0
aI0
aa(lp2200
I0
aI0
aI0
aa(lp2201
I0
aI0
aI0
aa(lp2202
I0
aI0
aI0
aa(lp2203
I1
aI0
aI0
aa(lp2204
I1
aI0
aI0
aa(lp2205
I2
aI0
aI0
aa(lp2206
I4
aI0
aI0
aa(lp2207
I5
aI0
aI0
aa(lp2208
I3
aI1
aI0
aa(lp2209
I3
aI1
aI0
aa(lp2210
I2
aI1
aI1
aa(lp2211
I0
aI0
aI0
aa(lp2212
I0
aI0
aI0
aa(lp2213
I6
aI6
aI1
aa(lp2214
I8
aI0
aI0
aa(lp2215
I9
aI3
aI1
aa(lp2216
I4
aI3
aI1
aa(lp2217
I2
aI0
aI0
aa(lp2218
I2
aI2
aI1
aa(lp2219
I8
aI5
aI0
aa(lp2220
I0
aI0
aI0
aa(lp2221
I5
aI0
aI0
aa(lp2222
I0
aI0
aI0
aa(lp2223
I1
aI0
aI0
aa(lp2224
I1
aI0
aI0
aa(lp2225
I4
aI3
aI1
aa(lp2226
I4
aI0
aI0
aa(lp2227
I2
aI0
aI0
aa(lp2228
I1
aI1
aI1
aa(lp2229
I1
aI0
aI0
aa(lp2230
I3
aI0
aI0
aa(lp2231
I0
aI0
aI0
aa(lp2232
I0
aI0
aI0
aa(lp2233
I0
aI0
aI0
aa(lp2234
I2
aI0
aI0
aa(lp2235
I7
aI4
aI1
aa(lp2236
I11
aI0
aI0
aa(lp2237
I3
aI1
aI0
aa(lp2238
I4
aI2
aI1
aa(lp2239
I0
aI0
aI0
aa(lp2240
I0
aI0
aI0
aa(lp2241
I1
aI0
aI0
aa(lp2242
I1
aI0
aI0
aa(lp2243
I2
aI1
aI1
aa(lp2244
I3
aI2
aI1
aa(lp2245
I2
aI0
aI0
aa(lp2246
I2
aI0
aI0
aa(lp2247
I2
aI0
aI0
aa(lp2248
I2
aI2
aI1
aa(lp2249
I0
aI0
aI0
aa(lp2250
I1
aI0
aI0
aa(lp2251
I3
aI0
aI0
aa(lp2252
I4
aI0
aI0
aa(lp2253
I1
aI0
aI0
aa(lp2254
I1
aI0
aI0
aa(lp2255
I0
aI0
aI0
aa(lp2256
I2
aI0
aI0
aa(lp2257
I3
aI3
aI1
aa(lp2258
I5
aI3
aI0
aa(lp2259
I5
aI1
aI1
aa(lp2260
I5
aI0
aI0
aa(lp2261
I1
aI0
aI0
aa(lp2262
I10
aI3
aI0
aa(lp2263
I8
aI0
aI0
aa(lp2264
I5
aI5
aI1
aa(lp2265
I2
aI0
aI0
aa(lp2266
I2
aI2
aI1
aa(lp2267
I4
aI0
aI0
aa(lp2268
I2
aI0
aI0
aa(lp2269
I1
aI1
aI1
aa(lp2270
I1
aI1
aI1
aa(lp2271
I4
aI0
aI0
aa(lp2272
I4
aI1
aI1
aa(lp2273
I6
aI0
aI0
aa(lp2274
I6
aI0
aI0
aa(lp2275
I5
aI0
aI0
aa(lp2276
I0
aI0
aI0
aa(lp2277
I4
aI1
aI0
aa(lp2278
I1
aI1
aI1
aa(lp2279
I2
aI0
aI0
aa(lp2280
I2
aI1
aI0
aa(lp2281
I5
aI3
aI0
aa(lp2282
I0
aI0
aI0
aa(lp2283
I1
aI1
aI1
aa(lp2284
I5
aI2
aI1
aa(lp2285
I1
aI0
aI0
aa(lp2286
I2
aI0
aI0
aa(lp2287
I4
aI0
aI0
aa(lp2288
I3
aI0
aI0
aa(lp2289
I1
aI1
aI1
aa(lp2290
I0
aI0
aI0
aa(lp2291
I5
aI3
aI0
aa(lp2292
I0
aI0
aI0
aa(lp2293
I5
aI2
aI1
aa(lp2294
I8
aI5
aI0
aa(lp2295
I0
aI0
aI0
aa(lp2296
I0
aI0
aI0
aa(lp2297
I1
aI0
aI0
aa(lp2298
I3
aI1
aI1
aa(lp2299
I2
aI0
aI0
aa(lp2300
I1
aI0
aI0
aa(lp2301
I2
aI1
aI0
aa(lp2302
I0
aI0
aI0
aa(lp2303
I6
aI2
aI0
aa(lp2304
I4
aI1
aI0
aa(lp2305
I1
aI0
aI0
aa(lp2306
I2
aI0
aI0
aa(lp2307
I0
aI0
aI0
aa(lp2308
I0
aI0
aI0
aa(lp2309
I2
aI0
aI0
aa(lp2310
I3
aI1
aI0
aa(lp2311
I2
aI0
aI0
aa(lp2312
I4
aI2
aI1
aa(lp2313
I5
aI1
aI1
aa(lp2314
I0
aI0
aI0
aa(lp2315
I0
aI0
aI0
aa(lp2316
I4
aI4
aI1
aa(lp2317
I4
aI1
aI0
aa(lp2318
I5
aI0
aI0
aa(lp2319
I10
aI1
aI0
aa(lp2320
I9
aI2
aI0
aa(lp2321
I7
aI1
aI0
aa(lp2322
I0
aI0
aI0
aa(lp2323
I4
aI1
aI1
aa(lp2324
I2
aI1
aI0
aa(lp2325
I6
aI2
aI0
aa(lp2326
I3
aI0
aI0
aa(lp2327
I6
aI4
aI1
aa(lp2328
I4
aI2
aI1
aa(lp2329
I4
aI0
aI0
aa(lp2330
I1
aI0
aI0
aa(lp2331
I2
aI1
aI1
aa(lp2332
I4
aI1
aI0
aa(lp2333
I4
aI1
aI1
aa(lp2334
I0
aI0
aI0
aa(lp2335
I0
aI0
aI0
aa(lp2336
I4
aI0
aI0
aa(lp2337
I10
aI2
aI0
aa(lp2338
I2
aI1
aI1
aa(lp2339
I2
aI2
aI1
aa(lp2340
I1
aI0
aI0
aa(lp2341
I11
aI0
aI0
aa(lp2342
I8
aI5
aI1
aa(lp2343
I2
aI1
aI1
aa(lp2344
I1
aI1
aI1
aa(lp2345
I9
aI0
aI0
aa(lp2346
I1
aI1
aI1
aa(lp2347
I1
aI0
aI0
aa(lp2348
I0
aI0
aI0
aa(lp2349
I0
aI0
aI0
aa(lp2350
I0
aI0
aI0
aa(lp2351
I1
aI0
aI0
aa(lp2352
I3
aI0
aI0
aa(lp2353
I2
aI0
aI0
aa(lp2354
I0
aI0
aI0
aa(lp2355
I0
aI0
aI0
aa(lp2356
I2
aI1
aI1
aa(lp2357
I5
aI2
aI0
aa(lp2358
I9
aI3
aI0
aa(lp2359
I3
aI0
aI0
aa(lp2360
I2
aI0
aI0
aa(lp2361
I9
aI6
aI1
aa(lp2362
I1
aI0
aI0
aa(lp2363
I0
aI0
aI0
aa(lp2364
I3
aI2
aI0
aa(lp2365
I3
aI1
aI0
aa(lp2366
I3
aI0
aI0
aa(lp2367
I3
aI0
aI0
aa(lp2368
I5
aI1
aI0
aa(lp2369
I1
aI1
aI1
aa(lp2370
I12
aI0
aI0
aa(lp2371
I2
aI0
aI0
aa(lp2372
I13
aI0
aI0
aa(lp2373
I3
aI0
aI0
aa(lp2374
I1
aI0
aI0
aa(lp2375
I8
aI0
aI0
aa(lp2376
I4
aI0
aI0
aa(lp2377
I5
aI1
aI0
aa(lp2378
I9
aI4
aI1
aa(lp2379
I1
aI0
aI0
aa(lp2380
I8
aI1
aI0
aa(lp2381
I12
aI2
aI0
aa(lp2382
I10
aI2
aI0
aa(lp2383
I3
aI1
aI1
aa(lp2384
I6
aI1
aI0
aa(lp2385
I2
aI2
aI1
aa(lp2386
I11
aI3
aI1
aa(lp2387
I2
aI0
aI0
aa(lp2388
I2
aI0
aI0
aa(lp2389
I5
aI0
aI0
aa(lp2390
I9
aI0
aI0
aa(lp2391
I3
aI0
aI0
aa(lp2392
I9
aI0
aI0
aa(lp2393
I2
aI0
aI0
aa(lp2394
I6
aI2
aI0
aa(lp2395
I1
aI1
aI1
aa(lp2396
I0
aI0
aI0
aa(lp2397
I1
aI0
aI0
aa(lp2398
I4
aI1
aI0
aa(lp2399
I6
aI2
aI1
aa(lp2400
I2
aI1
aI1
aa(lp2401
I0
aI0
aI0
aa(lp2402
I2
aI0
aI0
aa(lp2403
I3
aI1
aI1
aa(lp2404
I1
aI0
aI0
aa(lp2405
I5
aI1
aI0
aa(lp2406
I2
aI1
aI0
aa(lp2407
I4
aI1
aI1
aa(lp2408
I5
aI4
aI1
aa(lp2409
I6
aI4
aI1
aa(lp2410
I2
aI1
aI1
aa(lp2411
I1
aI1
aI1
aa(lp2412
I6
aI6
aI1
aa(lp2413
I5
aI2
aI1
aa(lp2414
I4
aI3
aI1
aa(lp2415
I4
aI4
aI1
aa(lp2416
I3
aI1
aI0
aa(lp2417
I6
aI0
aI0
aa(lp2418
I2
aI0
aI0
aa(lp2419
I3
aI0
aI0
aa(lp2420
I7
aI2
aI0
aa(lp2421
I6
aI0
aI0
aa(lp2422
I5
aI1
aI0
aa(lp2423
I2
aI0
aI0
aa(lp2424
I6
aI3
aI0
aa(lp2425
I7
aI3
aI1
aa(lp2426
I11
aI1
aI0
aa(lp2427
I3
aI0
aI0
aa(lp2428
I11
aI3
aI1
aa(lp2429
I0
aI0
aI0
aa(lp2430
I2
aI1
aI1
aa(lp2431
I4
aI1
aI1
aa(lp2432
I0
aI0
aI0
aa(lp2433
I2
aI0
aI0
aa(lp2434
I0
aI0
aI0
aa(lp2435
I9
aI5
aI0
aa(lp2436
I10
aI6
aI0
aa(lp2437
I5
aI4
aI1
aa(lp2438
I7
aI7
aI1
aa(lp2439
I0
aI0
aI0
aa(lp2440
I0
aI0
aI0
aa(lp2441
I0
aI0
aI0
aa(lp2442
I0
aI0
aI0
aa(lp2443
I15
aI1
aI0
aa(lp2444
I9
aI5
aI0
aa(lp2445
I4
aI0
aI0
aa(lp2446
I6
aI0
aI0
aa(lp2447
I4
aI0
aI0
aa(lp2448
I0
aI0
aI0
aa(lp2449
I7
aI4
aI0
aa(lp2450
I0
aI0
aI0
aa(lp2451
I1
aI0
aI0
aa(lp2452
I2
aI0
aI0
aa(lp2453
I3
aI0
aI0
aa(lp2454
I5
aI0
aI0
aa(lp2455
I4
aI0
aI0
aa(lp2456
I1
aI1
aI1
aa(lp2457
I3
aI1
aI0
aa(lp2458
I12
aI3
aI0
aa(lp2459
I4
aI0
aI0
aa(lp2460
I5
aI1
aI0
aa(lp2461
I2
aI0
aI0
aa(lp2462
I0
aI0
aI0
aa(lp2463
I3
aI0
aI0
aa(lp2464
I0
aI0
aI0
aa(lp2465
I3
aI2
aI1
aa(lp2466
I1
aI0
aI0
aa(lp2467
I4
aI1
aI0
aa(lp2468
I2
aI0
aI0
aa(lp2469
I0
aI0
aI0
aa(lp2470
I4
aI0
aI0
aa(lp2471
I3
aI1
aI0
aa(lp2472
I4
aI2
aI0
aa(lp2473
I2
aI0
aI0
aa(lp2474
I5
aI5
aI1
aa(lp2475
I2
aI1
aI1
aa(lp2476
I11
aI6
aI0
aa(lp2477
I5
aI1
aI1
aa(lp2478
I7
aI5
aI0
aa(lp2479
I10
aI0
aI0
aa(lp2480
I4
aI2
aI1
aa(lp2481
I5
aI2
aI0
aa(lp2482
I4
aI3
aI1
aa(lp2483
I2
aI0
aI0
aa(lp2484
I0
aI0
aI0
aa(lp2485
I0
aI0
aI0
aa(lp2486
I7
aI4
aI0
aa(lp2487
I3
aI1
aI0
aa(lp2488
I0
aI0
aI0
aa(lp2489
I4
aI3
aI1
aa(lp2490
I0
aI0
aI0
aa(lp2491
I0
aI0
aI0
aa(lp2492
I0
aI0
aI0
aa(lp2493
I10
aI0
aI0
aa(lp2494
I6
aI1
aI0
aa(lp2495
I1
aI0
aI0
aa(lp2496
I2
aI0
aI0
aa(lp2497
I4
aI2
aI1
aa(lp2498
I11
aI3
aI0
aa(lp2499
I7
aI2
aI0
aa(lp2500
I3
aI0
aI0
aa(lp2501
I1
aI0
aI0
aa(lp2502
I1
aI0
aI0
aa(lp2503
I0
aI0
aI0
aa(lp2504
I7
aI0
aI0
aa(lp2505
I7
aI0
aI0
aa(lp2506
I12
aI1
aI1
aa(lp2507
I1
aI0
aI0
aa(lp2508
I0
aI0
aI0
aa(lp2509
I5
aI0
aI0
aa(lp2510
I8
aI4
aI0
aa(lp2511
I0
aI0
aI0
aa(lp2512
I0
aI0
aI0
aa(lp2513
I0
aI0
aI0
aa(lp2514
I0
aI0
aI0
aa(lp2515
I2
aI0
aI0
aa(lp2516
I0
aI0
aI0
aa(lp2517
I11
aI1
aI1
aa(lp2518
I7
aI4
aI1
aa(lp2519
I3
aI3
aI1
aa(lp2520
I4
aI0
aI0
aa(lp2521
I2
aI0
aI0
aa(lp2522
I2
aI0
aI0
aa(lp2523
I14
aI0
aI0
aa(lp2524
I1
aI0
aI0
aa(lp2525
I6
aI1
aI0
aa(lp2526
I6
aI2
aI1
aa(lp2527
I4
aI0
aI0
aa(lp2528
I0
aI0
aI0
aa(lp2529
I3
aI0
aI0
aa(lp2530
I5
aI4
aI1
aa(lp2531
I0
aI0
aI0
aa(lp2532
I8
aI8
aI1
aa(lp2533
I4
aI2
aI0
aa(lp2534
I3
aI0
aI0
aa(lp2535
I4
aI1
aI0
aa(lp2536
I10
aI5
aI0
aa(lp2537
I2
aI1
aI1
aa(lp2538
I5
aI2
aI0
aa(lp2539
I1
aI1
aI1
aa(lp2540
I2
aI0
aI0
aa(lp2541
I9
aI1
aI0
aa(lp2542
I6
aI1
aI0
aa(lp2543
I0
aI0
aI0
aa(lp2544
I8
aI2
aI0
aa(lp2545
I8
aI4
aI1
aa(lp2546
I12
aI1
aI0
aa(lp2547
I1
aI0
aI0
aa(lp2548
I6
aI4
aI1
aa(lp2549
I1
aI0
aI0
aa(lp2550
I3
aI0
aI0
aa(lp2551
I2
aI0
aI0
aa(lp2552
I1
aI0
aI0
aa(lp2553
I1
aI0
aI0
aa(lp2554
I0
aI0
aI0
aa(lp2555
I0
aI0
aI0
aa(lp2556
I3
aI0
aI0
aa(lp2557
I0
aI0
aI0
aa(lp2558
I0
aI0
aI0
aa(lp2559
I3
aI0
aI0
aa(lp2560
I3
aI2
aI0
aa(lp2561
I2
aI0
aI0
aa(lp2562
I15
aI0
aI0
aa(lp2563
I5
aI1
aI0
aa(lp2564
I8
aI2
aI1
aa(lp2565
I3
aI1
aI0
aa(lp2566
I2
aI0
aI0
aa(lp2567
I0
aI0
aI0
aa(lp2568
I3
aI0
aI0
aa(lp2569
I0
aI0
aI0
aa(lp2570
I3
aI1
aI0
aa(lp2571
I4
aI0
aI0
aa(lp2572
I13
aI3
aI0
aa(lp2573
I4
aI1
aI0
aa(lp2574
I7
aI1
aI0
aa(lp2575
I6
aI0
aI0
aa(lp2576
I1
aI0
aI0
aa(lp2577
I12
aI1
aI0
aa(lp2578
I4
aI1
aI0
aa(lp2579
I6
aI0
aI0
aa(lp2580
I9
aI5
aI1
aa(lp2581
I5
aI0
aI0
aa(lp2582
I2
aI0
aI0
aa(lp2583
I5
aI2
aI1
aa(lp2584
I13
aI1
aI0
aa(lp2585
I8
aI4
aI0
aa(lp2586
I14
aI3
aI0
aa(lp2587
I10
aI1
aI0
aa(lp2588
I5
aI1
aI0
aa(lp2589
I2
aI0
aI0
aa(lp2590
I5
aI2
aI1
aa(lp2591
I6
aI2
aI0
aa(lp2592
I3
aI0
aI0
aa(lp2593
I3
aI2
aI1
aa(lp2594
I1
aI0
aI0
aa(lp2595
I0
aI0
aI0
aa(lp2596
I11
aI5
aI0
aa(lp2597
I0
aI0
aI0
aa(lp2598
I4
aI3
aI0
aa(lp2599
I0
aI0
aI0
aa(lp2600
I0
aI0
aI0
aa(lp2601
I0
aI0
aI0
aa(lp2602
I0
aI0
aI0
aa(lp2603
I10
aI0
aI0
aa(lp2604
I4
aI1
aI0
aa(lp2605
I1
aI1
aI1
aa(lp2606
I3
aI0
aI0
aa(lp2607
I5
aI2
aI0
aa(lp2608
I1
aI0
aI0
aa(lp2609
I1
aI0
aI0
aa(lp2610
I0
aI0
aI0
aa(lp2611
I0
aI0
aI0
aa(lp2612
I1
aI0
aI0
aa(lp2613
I1
aI1
aI1
aa(lp2614
I2
aI1
aI0
aa(lp2615
I13
aI1
aI0
aa(lp2616
I4
aI2
aI1
aa(lp2617
I2
aI0
aI0
aa(lp2618
I0
aI0
aI0
aa(lp2619
I0
aI0
aI0
aa(lp2620
I3
aI1
aI0
aa(lp2621
I4
aI0
aI0
aa(lp2622
I14
aI1
aI0
aa(lp2623
I3
aI1
aI0
aa(lp2624
I4
aI1
aI0
aa(lp2625
I0
aI0
aI0
aa(lp2626
I0
aI0
aI0
aa(lp2627
I0
aI0
aI0
aa(lp2628
I1
aI0
aI0
aa(lp2629
I0
aI0
aI0
aa(lp2630
I3
aI0
aI0
aa(lp2631
I4
aI1
aI1
aa(lp2632
I4
aI2
aI1
aa(lp2633
I0
aI0
aI0
aa(lp2634
I15
aI1
aI0
aa(lp2635
I0
aI0
aI0
aa(lp2636
I1
aI0
aI0
aa(lp2637
I0
aI0
aI0
aa(lp2638
I1
aI0
aI0
aa(lp2639
I0
aI0
aI0
aa(lp2640
I2
aI1
aI1
aa(lp2641
I0
aI0
aI0
aa(lp2642
I4
aI3
aI1
aa(lp2643
I7
aI0
aI0
aa(lp2644
I3
aI0
aI0
aa(lp2645
I0
aI0
aI0
aa(lp2646
I6
aI0
aI0
aa(lp2647
I4
aI2
aI1
aa(lp2648
I2
aI1
aI0
aa(lp2649
I7
aI0
aI0
aa(lp2650
I4
aI0
aI0
aa(lp2651
I7
aI2
aI0
aa(lp2652
I5
aI3
aI1
aa(lp2653
I0
aI0
aI0
aa(lp2654
I5
aI4
aI0
aa(lp2655
I16
aI1
aI0
aa(lp2656
I13
aI2
aI0
aa(lp2657
I4
aI0
aI0
aa(lp2658
I1
aI1
aI1
aa(lp2659
I6
aI6
aI1
aa(lp2660
I5
aI3
aI0
aa(lp2661
I1
aI0
aI0
aa(lp2662
I1
aI0
aI0
aa(lp2663
I0
aI0
aI0
aa(lp2664
I2
aI0
aI0
aa(lp2665
I5
aI0
aI0
aa(lp2666
I1
aI0
aI0
aa(lp2667
I2
aI0
aI0
aa(lp2668
I6
aI0
aI0
aa(lp2669
I6
aI0
aI0
aa(lp2670
I9
aI1
aI0
aa(lp2671
I8
aI6
aI1
aa(lp2672
I3
aI0
aI0
aa(lp2673
I4
aI1
aI0
aa(lp2674
I0
aI0
aI0
aa(lp2675
I0
aI0
aI0
aa(lp2676
I0
aI0
aI0
aa(lp2677
I0
aI0
aI0
aa(lp2678
I0
aI0
aI0
aa(lp2679
I2
aI0
aI0
aa(lp2680
I0
aI0
aI0
aa(lp2681
I0
aI0
aI0
aa(lp2682
I1
aI0
aI0
aa(lp2683
I1
aI0
aI0
aa(lp2684
I0
aI0
aI0
aa(lp2685
I2
aI1
aI1
aa(lp2686
I7
aI7
aI1
aa(lp2687
I7
aI0
aI0
aa(lp2688
I6
aI2
aI0
aa(lp2689
I3
aI2
aI0
aa(lp2690
I4
aI0
aI0
aa(lp2691
I5
aI0
aI0
aa(lp2692
I4
aI2
aI0
aa(lp2693
I4
aI3
aI0
aa(lp2694
I0
aI0
aI0
aa(lp2695
I4
aI0
aI0
aa(lp2696
I5
aI2
aI0
aa(lp2697
I0
aI0
aI0
aa(lp2698
I0
aI0
aI0
aa(lp2699
I0
aI0
aI0
aa(lp2700
I0
aI0
aI0
aa(lp2701
I0
aI0
aI0
aa(lp2702
I1
aI0
aI0
aa(lp2703
I2
aI0
aI0
aa(lp2704
I0
aI0
aI0
aa(lp2705
I1
aI0
aI0
aa(lp2706
I3
aI1
aI0
aa(lp2707
I1
aI0
aI0
aa(lp2708
I0
aI0
aI0
aa(lp2709
I0
aI0
aI0
aa(lp2710
I3
aI2
aI1
aa(lp2711
I7
aI5
aI1
aa(lp2712
I5
aI2
aI1
aa(lp2713
I0
aI0
aI0
aa(lp2714
I0
aI0
aI0
aa(lp2715
I5
aI2
aI0
aa(lp2716
I1
aI0
aI0
aa(lp2717
I0
aI0
aI0
aa(lp2718
I5
aI1
aI0
aa(lp2719
I0
aI0
aI0
aa(lp2720
I0
aI0
aI0
aa(lp2721
I1
aI0
aI0
aa(lp2722
I2
aI0
aI0
aa(lp2723
I0
aI0
aI0
aa(lp2724
I4
aI1
aI0
aa(lp2725
I2
aI1
aI0
aa(lp2726
I0
aI0
aI0
aa(lp2727
I3
aI1
aI0
aa(lp2728
I0
aI0
aI0
aa(lp2729
I3
aI0
aI0
aa(lp2730
I2
aI1
aI0
aa(lp2731
I9
aI5
aI1
aa(lp2732
I0
aI0
aI0
aa(lp2733
I0
aI0
aI0
aa(lp2734
I4
aI2
aI1
aa(lp2735
I0
aI0
aI0
aa(lp2736
I2
aI0
aI0
aa(lp2737
I0
aI0
aI0
aa(lp2738
I0
aI0
aI0
aa(lp2739
I8
aI2
aI1
aa(lp2740
I3
aI0
aI0
aa(lp2741
I1
aI1
aI1
aa(lp2742
I3
aI0
aI0
aa(lp2743
I1
aI1
aI1
aa(lp2744
I0
aI0
aI0
aa(lp2745
I0
aI0
aI0
aa(lp2746
I0
aI0
aI0
aa(lp2747
I1
aI1
aI1
aa(lp2748
I5
aI0
aI0
aa(lp2749
I3
aI0
aI0
aa(lp2750
I0
aI0
aI0
aa(lp2751
I2
aI1
aI1
aa(lp2752
I5
aI0
aI0
aa(lp2753
I6
aI2
aI0
aa(lp2754
I3
aI0
aI0
aa(lp2755
I0
aI0
aI0
aa(lp2756
I2
aI1
aI0
aa(lp2757
I1
aI0
aI0
aa(lp2758
I4
aI0
aI0
aa(lp2759
I2
aI0
aI0
aa(lp2760
I7
aI3
aI1
aa(lp2761
I6
aI4
aI0
aa(lp2762
I3
aI0
aI0
aa(lp2763
I0
aI0
aI0
aa(lp2764
I1
aI1
aI1
aa(lp2765
I0
aI0
aI0
aa(lp2766
I0
aI0
aI0
aa(lp2767
I0
aI0
aI0
aa(lp2768
I2
aI0
aI0
aa(lp2769
I12
aI3
aI0
aa(lp2770
I8
aI2
aI0
aa(lp2771
I11
aI0
aI0
aa(lp2772
I11
aI1
aI0
aa(lp2773
I3
aI0
aI0
aa(lp2774
I1
aI0
aI0
aa(lp2775
I1
aI0
aI0
aa(lp2776
I1
aI0
aI0
aa(lp2777
I1
aI1
aI1
aa(lp2778
I3
aI3
aI1
aa(lp2779
I0
aI0
aI0
aa(lp2780
I10
aI5
aI0
aa(lp2781
I3
aI0
aI0
aa(lp2782
I0
aI0
aI0
aa(lp2783
I1
aI1
aI1
aa(lp2784
I6
aI1
aI0
aa(lp2785
I4
aI1
aI0
aa(lp2786
I5
aI0
aI0
aa(lp2787
I12
aI5
aI0
aa(lp2788
I2
aI1
aI1
aa(lp2789
I14
aI2
aI0
aa(lp2790
I9
aI4
aI0
aa(lp2791
I7
aI2
aI1
aa(lp2792
I5
aI0
aI0
aa(lp2793
I8
aI0
aI0
aa(lp2794
I13
aI5
aI0
aa(lp2795
I3
aI1
aI0
aa(lp2796
I0
aI0
aI0
aa(lp2797
I9
aI0
aI0
aa(lp2798
I5
aI0
aI0
aa(lp2799
I4
aI2
aI1
aa(lp2800
I8
aI2
aI0
aa(lp2801
I14
aI5
aI0
aa(lp2802
I4
aI0
aI0
aa(lp2803
I9
aI3
aI1
aa(lp2804
I9
aI0
aI0
aa(lp2805
I3
aI0
aI0
aa(lp2806
I6
aI2
aI0
aa(lp2807
I5
aI0
aI0
aa(lp2808
I2
aI0
aI0
aa(lp2809
I0
aI0
aI0
aa(lp2810
I3
aI1
aI0
aa(lp2811
I4
aI3
aI1
aa(lp2812
I1
aI1
aI1
aa(lp2813
I1
aI0
aI0
aa(lp2814
I7
aI2
aI0
aa(lp2815
I4
aI2
aI1
aa(lp2816
I3
aI0
aI0
aa(lp2817
I1
aI0
aI0
aa(lp2818
I3
aI0
aI0
aa(lp2819
I2
aI0
aI0
aa(lp2820
I8
aI3
aI0
aa(lp2821
I5
aI0
aI0
aa(lp2822
I1
aI0
aI0
aa(lp2823
I3
aI0
aI0
aa(lp2824
I2
aI2
aI1
aa(lp2825
I0
aI0
aI0
aa(lp2826
I1
aI0
aI0
aa(lp2827
I1
aI0
aI0
aa(lp2828
I4
aI0
aI0
aa(lp2829
I3
aI0
aI0
aa(lp2830
I11
aI0
aI0
aa(lp2831
I0
aI0
aI0
aa(lp2832
I5
aI3
aI0
aa(lp2833
I3
aI0
aI0
aa(lp2834
I0
aI0
aI0
aa(lp2835
I7
aI0
aI0
aa(lp2836
I1
aI0
aI0
aa(lp2837
I3
aI0
aI0
aa(lp2838
I1
aI1
aI1
aa(lp2839
I2
aI1
aI0
aa(lp2840
I4
aI0
aI0
aa(lp2841
I2
aI0
aI0
aa(lp2842
I5
aI1
aI0
aa(lp2843
I3
aI0
aI0
aa(lp2844
I15
aI5
aI0
aa(lp2845
I5
aI0
aI0
aa(lp2846
I7
aI0
aI0
aa(lp2847
I8
aI0
aI0
aa(lp2848
I1
aI0
aI0
aa(lp2849
I7
aI0
aI0
aa(lp2850
I0
aI0
aI0
aa(lp2851
I5
aI2
aI0
aa(lp2852
I0
aI0
aI0
aa(lp2853
I1
aI0
aI0
aa(lp2854
I4
aI2
aI0
aa(lp2855
I1
aI0
aI0
aa(lp2856
I12
aI1
aI0
aa(lp2857
I0
aI0
aI0
aa(lp2858
I8
aI2
aI0
aa(lp2859
I0
aI0
aI0
aa(lp2860
I0
aI0
aI0
aa(lp2861
I6
aI1
aI0
aa(lp2862
I5
aI0
aI0
aa(lp2863
I0
aI0
aI0
aa(lp2864
I2
aI0
aI0
aa(lp2865
I0
aI0
aI0
aa(lp2866
I0
aI0
aI0
aa(lp2867
I0
aI0
aI0
aa(lp2868
I0
aI0
aI0
aa(lp2869
I0
aI0
aI0
aa(lp2870
I0
aI0
aI0
aa(lp2871
I0
aI0
aI0
aa(lp2872
I0
aI0
aI0
aa(lp2873
I0
aI0
aI0
aa(lp2874
I2
aI2
aI1
aa(lp2875
I0
aI0
aI0
aa(lp2876
I1
aI0
aI0
aa(lp2877
I0
aI0
aI0
aa(lp2878
I10
aI0
aI0
aa(lp2879
I3
aI0
aI0
aa(lp2880
I0
aI0
aI0
aa(lp2881
I0
aI0
aI0
aa(lp2882
I1
aI0
aI0
aa(lp2883
I5
aI1
aI0
aa(lp2884
I0
aI0
aI0
aa(lp2885
I0
aI0
aI0
aa(lp2886
I3
aI0
aI0
aa(lp2887
I0
aI0
aI0
aa(lp2888
I3
aI1
aI1
aa(lp2889
I0
aI0
aI0
aa(lp2890
I6
aI0
aI0
aa(lp2891
I3
aI1
aI0
aa(lp2892
I5
aI1
aI0
aa(lp2893
I7
aI3
aI0
aa(lp2894
I4
aI0
aI0
aa(lp2895
I4
aI1
aI1
aa(lp2896
I2
aI2
aI1
aa(lp2897
I7
aI2
aI1
aa(lp2898
I1
aI0
aI0
aa(lp2899
I5
aI3
aI1
aa(lp2900
I3
aI0
aI0
aa(lp2901
I4
aI0
aI0
aa(lp2902
I6
aI1
aI0
aa(lp2903
I6
aI4
aI0
aa(lp2904
I5
aI0
aI0
aa(lp2905
I3
aI2
aI0
aa(lp2906
I3
aI1
aI0
aa(lp2907
I0
aI0
aI0
aa(lp2908
I0
aI0
aI0
aa(lp2909
I1
aI0
aI0
aa(lp2910
I0
aI0
aI0
aa(lp2911
I3
aI0
aI0
aa(lp2912
I0
aI0
aI0
aa(lp2913
I15
aI3
aI0
aa(lp2914
I5
aI2
aI1
aa(lp2915
I0
aI0
aI0
aa(lp2916
I12
aI0
aI0
aa(lp2917
I11
aI6
aI1
aa(lp2918
I6
aI2
aI0
aa(lp2919
I0
aI0
aI0
aa(lp2920
I0
aI0
aI0
aa(lp2921
I0
aI0
aI0
aa(lp2922
I1
aI0
aI0
aa(lp2923
I5
aI0
aI0
aa(lp2924
I1
aI0
aI0
aa(lp2925
I0
aI0
aI0
aa(lp2926
I5
aI0
aI0
aa(lp2927
I12
aI3
aI0
aa(lp2928
I6
aI1
aI1
aa(lp2929
I1
aI1
aI1
aa(lp2930
I1
aI0
aI0
aa(lp2931
I6
aI0
aI0
aa(lp2932
I1
aI0
aI0
aa(lp2933
I1
aI0
aI0
aa(lp2934
I7
aI0
aI0
aa(lp2935
I8
aI0
aI0
aa(lp2936
I6
aI2
aI0
aa(lp2937
I7
aI1
aI0
aa(lp2938
I4
aI0
aI0
aa(lp2939
I1
aI0
aI0
aa(lp2940
I4
aI1
aI0
aa(lp2941
I6
aI0
aI0
aa(lp2942
I16
aI3
aI0
aa(lp2943
I15
aI2
aI0
aa(lp2944
I4
aI0
aI0
aa(lp2945
I16
aI1
aI0
aa(lp2946
I1
aI0
aI0
aa(lp2947
I8
aI4
aI0
aa(lp2948
I8
aI0
aI0
aa(lp2949
I0
aI0
aI0
aa(lp2950
I1
aI0
aI0
aa(lp2951
I7
aI2
aI0
aa(lp2952
I8
aI2
aI0
aa(lp2953
I9
aI2
aI0
aa(lp2954
I10
aI2
aI0
aa(lp2955
I5
aI1
aI0
aa(lp2956
I0
aI0
aI0
aa(lp2957
I1
aI0
aI0
aa(lp2958
I0
aI0
aI0
aa(lp2959
I3
aI0
aI0
aa(lp2960
I1
aI0
aI0
aa(lp2961
I5
aI2
aI1
aa(lp2962
I3
aI0
aI0
aa(lp2963
I0
aI0
aI0
aa(lp2964
I1
aI0
aI0
aa(lp2965
I1
aI0
aI0
aa(lp2966
I2
aI1
aI0
aa(lp2967
I4
aI0
aI0
aa(lp2968
I0
aI0
aI0
aa(lp2969
I7
aI2
aI0
aa(lp2970
I17
aI1
aI0
aa(lp2971
I2
aI2
aI1
aa(lp2972
I3
aI1
aI0
aa(lp2973
I2
aI0
aI0
aa(lp2974
I0
aI0
aI0
aa(lp2975
I0
aI0
aI0
aa(lp2976
I1
aI0
aI0
aa(lp2977
I4
aI0
aI0
aa(lp2978
I1
aI1
aI1
aa(lp2979
I0
aI0
aI0
aa(lp2980
I0
aI0
aI0
aa(lp2981
I2
aI1
aI0
aa(lp2982
I1
aI0
aI0
aa(lp2983
I0
aI0
aI0
aa(lp2984
I0
aI0
aI0
aa(lp2985
I11
aI2
aI0
aa(lp2986
I1
aI0
aI0
aa(lp2987
I3
aI1
aI0
aa(lp2988
I1
aI0
aI0
aa(lp2989
I4
aI0
aI0
aa(lp2990
I6
aI1
aI0
aa(lp2991
I2
aI2
aI1
aa(lp2992
I4
aI0
aI0
aa(lp2993
I7
aI0
aI0
aa(lp2994
I10
aI3
aI0
aa(lp2995
I6
aI3
aI0
aa(lp2996
I0
aI0
aI0
aa(lp2997
I3
aI0
aI0
aa(lp2998
I7
aI4
aI0
aa(lp2999
I1
aI0
aI0
aa(lp3000
I12
aI7
aI1
aa(lp3001
I5
aI0
aI0
aa(lp3002
I4
aI2
aI1
aa(lp3003
I2
aI0
aI0
aa(lp3004
I4
aI1
aI1
aa(lp3005
I2
aI1
aI1
aa(lp3006
I6
aI2
aI0
aa(lp3007
I7
aI1
aI0
aa(lp3008
I5
aI0
aI0
aa(lp3009
I9
aI2
aI0
aa(lp3010
I2
aI0
aI0
aa(lp3011
I6
aI0
aI0
aa(lp3012
I5
aI1
aI0
aa(lp3013
I2
aI0
aI0
aa(lp3014
I6
aI0
aI0
aa(lp3015
I0
aI0
aI0
aa(lp3016
I0
aI0
aI0
aa(lp3017
I2
aI0
aI0
aa(lp3018
I4
aI0
aI0
aa(lp3019
I3
aI0
aI0
aa(lp3020
I2
aI0
aI0
aa(lp3021
I3
aI0
aI0
aa(lp3022
I18
aI1
aI0
aa(lp3023
I2
aI0
aI0
aa(lp3024
I4
aI0
aI0
aa(lp3025
I3
aI0
aI0
aa(lp3026
I6
aI0
aI0
aa(lp3027
I2
aI0
aI0
aa(lp3028
I16
aI2
aI0
aa(lp3029
I0
aI0
aI0
aa(lp3030
I1
aI0
aI0
aa(lp3031
I0
aI0
aI0
aa(lp3032
I6
aI2
aI0
aa(lp3033
I1
aI1
aI1
aa(lp3034
I1
aI0
aI0
aa(lp3035
I0
aI0
aI0
aa(lp3036
I4
aI0
aI0
aa(lp3037
I5
aI3
aI0
aa(lp3038
I6
aI1
aI0
aa(lp3039
I1
aI0
aI0
aa(lp3040
I0
aI0
aI0
aa(lp3041
I7
aI1
aI0
aa(lp3042
I2
aI0
aI0
aa(lp3043
I6
aI3
aI0
aa(lp3044
I1
aI1
aI1
aa(lp3045
I5
aI0
aI0
aa(lp3046
I7
aI0
aI0
aa(lp3047
I6
aI2
aI0
aa(lp3048
I2
aI2
aI1
aa(lp3049
I2
aI1
aI0
aa(lp3050
I0
aI0
aI0
aa(lp3051
I0
aI0
aI0
aa(lp3052
I0
aI0
aI0
aa(lp3053
I0
aI0
aI0
aa(lp3054
I0
aI0
aI0
aa(lp3055
I9
aI3
aI1
aa(lp3056
I0
aI0
aI0
aa(lp3057
I7
aI2
aI0
aa(lp3058
I1
aI0
aI0
aa(lp3059
I0
aI0
aI0
aa(lp3060
I0
aI0
aI0
aa(lp3061
I1
aI0
aI0
aa(lp3062
I0
aI0
aI0
aa(lp3063
I1
aI0
aI0
aa(lp3064
I0
aI0
aI0
aa(lp3065
I1
aI1
aI1
aa(lp3066
I8
aI2
aI0
aa(lp3067
I0
aI0
aI0
aa(lp3068
I0
aI0
aI0
aa(lp3069
I0
aI0
aI0
aa(lp3070
I1
aI0
aI0
aa(lp3071
I0
aI0
aI0
aa(lp3072
I5
aI1
aI0
aa(lp3073
I1
aI0
aI0
aa(lp3074
I0
aI0
aI0
aa(lp3075
I2
aI0
aI0
aa(lp3076
I2
aI0
aI0
aa(lp3077
I6
aI0
aI0
aa(lp3078
I3
aI1
aI0
aa(lp3079
I0
aI0
aI0
aa(lp3080
I0
aI0
aI0
aa(lp3081
I17
aI2
aI0
aa(lp3082
I16
aI5
aI0
aa(lp3083
I1
aI0
aI0
aa(lp3084
I1
aI0
aI0
aa(lp3085
I1
aI1
aI1
aa(lp3086
I0
aI0
aI0
aa(lp3087
I19
aI1
aI0
aa(lp3088
I7
aI5
aI1
aa(lp3089
I7
aI3
aI1
aa(lp3090
I8
aI3
aI1
aa(lp3091
I0
aI0
aI0
aa(lp3092
I2
aI0
aI0
aa(lp3093
I7
aI1
aI0
aa(lp3094
I5
aI0
aI0
aa(lp3095
I0
aI0
aI0
aa(lp3096
I0
aI0
aI0
aa(lp3097
I0
aI0
aI0
aa(lp3098
I9
aI4
aI1
aa(lp3099
I7
aI3
aI0
aa(lp3100
I1
aI0
aI0
aa(lp3101
I0
aI0
aI0
aa(lp3102
I0
aI0
aI0
aa(lp3103
I6
aI0
aI0
aa(lp3104
I5
aI2
aI0
aa(lp3105
I0
aI0
aI0
aa(lp3106
I7
aI7
aI1
aa(lp3107
I1
aI0
aI0
aa(lp3108
I0
aI0
aI0
aa(lp3109
I0
aI0
aI0
aa(lp3110
I0
aI0
aI0
aa(lp3111
I1
aI1
aI1
aa(lp3112
I0
aI0
aI0
aa(lp3113
I5
aI0
aI0
aa(lp3114
I6
aI0
aI0
aa(lp3115
I1
aI0
aI0
aa(lp3116
I7
aI3
aI1
aa(lp3117
I5
aI1
aI0
aa(lp3118
I20
aI2
aI1
aa(lp3119
I6
aI1
aI1
aa(lp3120
I8
aI0
aI0
aa(lp3121
I1
aI0
aI0
aa(lp3122
I0
aI0
aI0
aa(lp3123
I7
aI3
aI1
aa(lp3124
I8
aI3
aI0
aa(lp3125
I16
aI0
aI0
aa(lp3126
I8
aI0
aI0
aa(lp3127
I8
aI0
aI0
aa(lp3128
I5
aI0
aI0
aa(lp3129
I8
aI4
aI1
aa(lp3130
I13
aI1
aI0
aa(lp3131
I14
aI1
aI0
aa(lp3132
I2
aI0
aI0
aa(lp3133
I7
aI2
aI1
aa(lp3134
I9
aI4
aI0
aa(lp3135
I7
aI1
aI0
aa(lp3136
I7
aI2
aI0
aa(lp3137
I7
aI3
aI1
aa(lp3138
I6
aI3
aI1
aa(lp3139
I3
aI1
aI1
aa(lp3140
I3
aI0
aI0
aa(lp3141
I0
aI0
aI0
aa(lp3142
I0
aI0
aI0
aa(lp3143
I8
aI1
aI1
aa(lp3144
I9
aI0
aI0
aa(lp3145
I1
aI1
aI1
aa(lp3146
I0
aI0
aI0
aa(lp3147
I3
aI1
aI0
aa(lp3148
I10
aI5
aI0
aa(lp3149
I4
aI0
aI0
aa(lp3150
I2
aI1
aI0
aa(lp3151
I0
aI0
aI0
aa(lp3152
I0
aI0
aI0
aa(lp3153
I2
aI2
aI1
aa(lp3154
I0
aI0
aI0
aa(lp3155
I8
aI0
aI0
aa(lp3156
I3
aI2
aI1
aa(lp3157
I0
aI0
aI0
aa(lp3158
I0
aI0
aI0
aa(lp3159
I9
aI4
aI0
aa(lp3160
I10
aI5
aI0
aa(lp3161
I0
aI0
aI0
aa(lp3162
I0
aI0
aI0
aa(lp3163
I4
aI0
aI0
aa(lp3164
I1
aI0
aI0
aa(lp3165
I0
aI0
aI0
aa(lp3166
I3
aI0
aI0
aa(lp3167
I5
aI1
aI1
aa(lp3168
I0
aI0
aI0
aa(lp3169
I6
aI0
aI0
aa(lp3170
I2
aI0
aI0
aa(lp3171
I10
aI4
aI1
aa(lp3172
I3
aI0
aI0
aa(lp3173
I6
aI0
aI0
aa(lp3174
I2
aI0
aI0
aa(lp3175
I11
aI4
aI0
aa(lp3176
I3
aI0
aI0
aa(lp3177
I1
aI0
aI0
aa(lp3178
I13
aI1
aI0
aa(lp3179
I3
aI3
aI1
aa(lp3180
I2
aI0
aI0
aa(lp3181
I3
aI0
aI0
aa(lp3182
I8
aI5
aI0
aa(lp3183
I1
aI0
aI0
aa(lp3184
I0
aI0
aI0
aa(lp3185
I7
aI0
aI0
aa(lp3186
I1
aI0
aI0
aa(lp3187
I2
aI2
aI1
aa(lp3188
I0
aI0
aI0
aa(lp3189
I0
aI0
aI0
aa(lp3190
I8
aI0
aI0
aa(lp3191
I9
aI0
aI0
aa(lp3192
I6
aI0
aI0
aa(lp3193
I0
aI0
aI0
aa(lp3194
I0
aI0
aI0
aa(lp3195
I0
aI0
aI0
aa(lp3196
I0
aI0
aI0
aa(lp3197
I0
aI0
aI0
aa(lp3198
I0
aI0
aI0
aa(lp3199
I5
aI2
aI0
aa(lp3200
I1
aI1
aI1
aa(lp3201
I2
aI1
aI1
aa(lp3202
I0
aI0
aI0
aa(lp3203
I0
aI0
aI0
aa(lp3204
I2
aI0
aI0
aa(lp3205
I0
aI0
aI0
aa(lp3206
I9
aI3
aI1
aa(lp3207
I0
aI0
aI0
aa(lp3208
I1
aI0
aI0
aa(lp3209
I0
aI0
aI0
aa(lp3210
I0
aI0
aI0
aa(lp3211
I1
aI0
aI0
aa(lp3212
I1
aI0
aI0
aa(lp3213
I0
aI0
aI0
aa(lp3214
I1
aI1
aI1
aa(lp3215
I0
aI0
aI0
aa(lp3216
I9
aI0
aI0
aa(lp3217
I1
aI0
aI0
aa(lp3218
I0
aI0
aI0
aa(lp3219
I2
aI1
aI1
aa(lp3220
I10
aI0
aI0
aa(lp3221
I0
aI0
aI0
aa(lp3222
I2
aI0
aI0
aa(lp3223
I1
aI0
aI0
aa(lp3224
I1
aI0
aI0
aa(lp3225
I1
aI0
aI0
aa(lp3226
I4
aI1
aI0
aa(lp3227
I0
aI0
aI0
aa(lp3228
I3
aI1
aI1
aa(lp3229
I0
aI0
aI0
aa(lp3230
I10
aI2
aI0
aa(lp3231
I4
aI0
aI0
aa(lp3232
I4
aI4
aI1
aa(lp3233
I6
aI0
aI0
aa(lp3234
I3
aI0
aI0
aa(lp3235
I0
aI0
aI0
aa(lp3236
I0
aI0
aI0
aa(lp3237
I7
aI1
aI0
aa(lp3238
I14
aI1
aI0
aa(lp3239
I0
aI0
aI0
aa(lp3240
I11
aI2
aI0
aa(lp3241
I1
aI1
aI1
aa(lp3242
I17
aI5
aI0
aa(lp3243
I0
aI0
aI0
aa(lp3244
I11
aI0
aI0
aa(lp3245
I4
aI1
aI0
aa(lp3246
I1
aI0
aI0
aa(lp3247
I15
aI1
aI0
aa(lp3248
I1
aI0
aI0
aa(lp3249
I0
aI0
aI0
aa(lp3250
I16
aI2
aI1
aa(lp3251
I8
aI0
aI0
aa(lp3252
I9
aI0
aI0
aa(lp3253
I0
aI0
aI0
aa(lp3254
I1
aI0
aI0
aa(lp3255
I1
aI0
aI0
aa(lp3256
I2
aI0
aI0
aa(lp3257
I3
aI0
aI0
aa(lp3258
I4
aI0
aI0
aa(lp3259
I0
aI0
aI0
aa(lp3260
I1
aI1
aI1
aa(lp3261
I0
aI0
aI0
aa(lp3262
I5
aI1
aI0
aa(lp3263
I1
aI0
aI0
aa(lp3264
I11
aI6
aI1
aa(lp3265
I17
aI3
aI0
aa(lp3266
I7
aI0
aI0
aa(lp3267
I4
aI0
aI0
aa(lp3268
I3
aI1
aI0
aa(lp3269
I1
aI0
aI0
aa(lp3270
I6
aI0
aI0
aa(lp3271
I21
aI3
aI1
aa(lp3272
I2
aI2
aI1
aa(lp3273
I1
aI1
aI1
aa(lp3274
I2
aI0
aI0
aa(lp3275
I1
aI0
aI0
aa(lp3276
I11
aI6
aI1
aa(lp3277
I7
aI0
aI0
aa(lp3278
I10
aI0
aI0
aa(lp3279
I3
aI1
aI0
aa(lp3280
I4
aI0
aI0
aa(lp3281
I4
aI1
aI0
aa(lp3282
I14
aI1
aI0
aa(lp3283
I6
aI4
aI1
aa(lp3284
I12
aI6
aI0
aa(lp3285
I0
aI0
aI0
aa(lp3286
I1
aI0
aI0
aa(lp3287
I2
aI0
aI0
aa(lp3288
I2
aI2
aI1
aa(lp3289
I0
aI0
aI0
aa(lp3290
I2
aI0
aI0
aa(lp3291
I3
aI2
aI1
aa(lp3292
I13
aI3
aI0
aa(lp3293
I2
aI0
aI0
aa(lp3294
I4
aI1
aI0
aa(lp3295
I0
aI0
aI0
aa(lp3296
I0
aI0
aI0
aa(lp3297
I4
aI0
aI0
aa(lp3298
I8
aI0
aI0
aa(lp3299
I1
aI0
aI0
aa(lp3300
I18
aI5
aI0
aa(lp3301
I13
aI1
aI1
aa(lp3302
I5
aI3
aI1
aa(lp3303
I1
aI0
aI0
aa(lp3304
I2
aI1
aI1
aa(lp3305
I1
aI0
aI0
aa(lp3306
I2
aI0
aI0
aa(lp3307
I6
aI0
aI0
aa(lp3308
I7
aI2
aI0
aa(lp3309
I2
aI0
aI0
aa(lp3310
I4
aI0
aI0
aa(lp3311
I5
aI0
aI0
aa(lp3312
I0
aI0
aI0
aa(lp3313
I5
aI0
aI0
aa(lp3314
I0
aI0
aI0
aa(lp3315
I0
aI0
aI0
aa(lp3316
I0
aI0
aI0
aa(lp3317
I1
aI0
aI0
aa(lp3318
I1
aI0
aI0
aa(lp3319
I4
aI0
aI0
aa(lp3320
I1
aI0
aI0
aa(lp3321
I0
aI0
aI0
aa(lp3322
I0
aI0
aI0
aa(lp3323
I0
aI0
aI0
aa(lp3324
I5
aI1
aI0
aa(lp3325
I18
aI3
aI0
aa(lp3326
I9
aI3
aI0
aa(lp3327
I2
aI1
aI1
aa(lp3328
I1
aI0
aI0
aa(lp3329
I1
aI0
aI0
aa(lp3330
I3
aI1
aI0
aa(lp3331
I5
aI0
aI0
aa(lp3332
I1
aI0
aI0
aa(lp3333
I5
aI0
aI0
aa(lp3334
I6
aI2
aI0
aa(lp3335
I1
aI0
aI0
aa(lp3336
I10
aI0
aI0
aa(lp3337
I1
aI1
aI1
aa(lp3338
I2
aI0
aI0
aa(lp3339
I2
aI0
aI0
aa(lp3340
I0
aI0
aI0
aa(lp3341
I6
aI5
aI1
aa(lp3342
I6
aI4
aI1
aa(lp3343
I0
aI0
aI0
aa(lp3344
I0
aI0
aI0
aa(lp3345
I0
aI0
aI0
aa(lp3346
I0
aI0
aI0
aa(lp3347
I7
aI4
aI0
aa(lp3348
I12
aI0
aI0
aa(lp3349
I15
aI2
aI1
aa(lp3350
I12
aI2
aI0
aa(lp3351
I3
aI0
aI0
aa(lp3352
I2
aI0
aI0
aa(lp3353
I1
aI0
aI0
aa(lp3354
I7
aI0
aI0
aa(lp3355
I2
aI1
aI0
aa(lp3356
I6
aI0
aI0
aa(lp3357
I1
aI0
aI0
aa(lp3358
I7
aI0
aI0
aa(lp3359
I2
aI0
aI0
aa(lp3360
I3
aI0
aI0
aa(lp3361
I8
aI1
aI1
aa(lp3362
I9
aI1
aI0
aa(lp3363
I7
aI5
aI0
aa(lp3364
I7
aI0
aI0
aa(lp3365
I5
aI2
aI1
aa(lp3366
I7
aI1
aI0
aa(lp3367
I0
aI0
aI0
aa(lp3368
I0
aI0
aI0
aa(lp3369
I7
aI0
aI0
aa(lp3370
I2
aI0
aI0
aa(lp3371
I19
aI3
aI0
aa(lp3372
I13
aI7
aI0
aa(lp3373
I7
aI2
aI1
aa(lp3374
I9
aI2
aI0
aa(lp3375
I5
aI0
aI0
aa(lp3376
I5
aI0
aI0
aa(lp3377
I0
aI0
aI0
aa(lp3378
I0
aI0
aI0
aa(lp3379
I3
aI0
aI0
aa(lp3380
I10
aI1
aI0
aa(lp3381
I1
aI0
aI0
aa(lp3382
I1
aI0
aI0
aa(lp3383
I3
aI1
aI0
aa(lp3384
I6
aI1
aI1
aa(lp3385
I9
aI0
aI0
aa(lp3386
I6
aI1
aI0
aa(lp3387
I0
aI0
aI0
aa(lp3388
I1
aI0
aI0
aa(lp3389
I3
aI0
aI0
aa(lp3390
I18
aI2
aI0
aa(lp3391
I9
aI1
aI0
aa(lp3392
I5
aI1
aI0
aa(lp3393
I0
aI0
aI0
aa(lp3394
I0
aI0
aI0
aa(lp3395
I0
aI0
aI0
aa(lp3396
I0
aI0
aI0
aa(lp3397
I3
aI2
aI1
aa(lp3398
I5
aI0
aI0
aa(lp3399
I1
aI1
aI1
aa(lp3400
I0
aI0
aI0
aa(lp3401
I6
aI1
aI0
aa(lp3402
I17
aI1
aI0
aa(lp3403
I9
aI3
aI0
aa(lp3404
I2
aI0
aI0
aa(lp3405
I9
aI5
aI0
aa(lp3406
I20
aI3
aI0
aa(lp3407
I1
aI0
aI0
aa(lp3408
I15
aI2
aI1
aa(lp3409
I5
aI0
aI0
aa(lp3410
I10
aI2
aI0
aa(lp3411
I7
aI0
aI0
aa(lp3412
I4
aI0
aI0
aa(lp3413
I7
aI2
aI0
aa(lp3414
I1
aI0
aI0
aa(lp3415
I4
aI0
aI0
aa(lp3416
I0
aI0
aI0
aa(lp3417
I4
aI0
aI0
aa(lp3418
I8
aI2
aI1
aa(lp3419
I3
aI1
aI0
aa(lp3420
I7
aI1
aI0
aa(lp3421
I10
aI3
aI0
aa(lp3422
I14
aI1
aI0
aa(lp3423
I8
aI0
aI0
aa(lp3424
I13
aI2
aI0
aa(lp3425
I14
aI2
aI0
aa(lp3426
I2
aI0
aI0
aa(lp3427
I4
aI2
aI0
aa(lp3428
I8
aI2
aI0
aa(lp3429
I4
aI0
aI0
aa(lp3430
I0
aI0
aI0
aa(lp3431
I1
aI0
aI0
aa(lp3432
I0
aI0
aI0
aa(lp3433
I1
aI1
aI1
aa(lp3434
I0
aI0
aI0
aa(lp3435
I11
aI4
aI1
aa(lp3436
I0
aI0
aI0
aa(lp3437
I0
aI0
aI0
aa(lp3438
I0
aI0
aI0
aa(lp3439
I4
aI0
aI0
aa(lp3440
I10
aI0
aI0
aa(lp3441
I12
aI6
aI0
aa(lp3442
I2
aI0
aI0
aa(lp3443
I0
aI0
aI0
aa(lp3444
I19
aI2
aI0
aa(lp3445
I1
aI0
aI0
aa(lp3446
I6
aI0
aI0
aa(lp3447
I12
aI0
aI0
aa(lp3448
I6
aI0
aI0
aa(lp3449
I0
aI0
aI0
aa(lp3450
I0
aI0
aI0
aa(lp3451
I6
aI1
aI1
aa(lp3452
I0
aI0
aI0
aa(lp3453
I8
aI4
aI1
aa(lp3454
I13
aI0
aI0
aa(lp3455
I1
aI0
aI0
aa(lp3456
I6
aI2
aI0
aa(lp3457
I1
aI1
aI1
aa(lp3458
I8
aI1
aI0
aa(lp3459
I4
aI4
aI1
aa(lp3460
I0
aI0
aI0
aa(lp3461
I9
aI0
aI0
aa(lp3462
I7
aI1
aI0
aa(lp3463
I5
aI2
aI1
aa(lp3464
I5
aI0
aI0
aa(lp3465
I2
aI0
aI0
aa(lp3466
I13
aI3
aI0
aa(lp3467
I3
aI1
aI0
aa(lp3468
I19
aI6
aI1
aa(lp3469
I4
aI0
aI0
aa(lp3470
I0
aI0
aI0
aa(lp3471
I10
aI3
aI0
aa(lp3472
I8
aI1
aI0
aa(lp3473
I10
aI4
aI0
aa(lp3474
I0
aI0
aI0
aa(lp3475
I2
aI2
aI1
aa(lp3476
I0
aI0
aI0
aa(lp3477
I2
aI1
aI1
aa(lp3478
I4
aI4
aI1
aa(lp3479
I11
aI5
aI1
aa(lp3480
I2
aI0
aI0
aa(lp3481
I5
aI1
aI1
aa(lp3482
I1
aI0
aI0
aa(lp3483
I6
aI1
aI0
aa(lp3484
I1
aI0
aI0
aa(lp3485
I0
aI0
aI0
aa(lp3486
I11
aI3
aI0
aa(lp3487
I9
aI2
aI0
aa(lp3488
I2
aI0
aI0
aa(lp3489
I10
aI2
aI0
aa(lp3490
I0
aI0
aI0
aa(lp3491
I0
aI0
aI0
aa(lp3492
I9
aI0
aI0
aa(lp3493
I5
aI0
aI0
aa(lp3494
I4
aI0
aI0
aa(lp3495
I10
aI0
aI0
aa(lp3496
I2
aI2
aI1
aa(lp3497
I3
aI3
aI1
aa(lp3498
I0
aI0
aI0
aa(lp3499
I0
aI0
aI0
aa(lp3500
I0
aI0
aI0
aa(lp3501
I0
aI0
aI0
aa(lp3502
I0
aI0
aI0
aa(lp3503
I0
aI0
aI0
aa(lp3504
I1
aI0
aI0
aa(lp3505
I2
aI0
aI0
aa(lp3506
I0
aI0
aI0
aa(lp3507
I3
aI0
aI0
aa(lp3508
I8
aI2
aI0
aa(lp3509
I14
aI3
aI0
aa(lp3510
I8
aI1
aI0
aa(lp3511
I9
aI1
aI0
aa(lp3512
I8
aI3
aI0
aa(lp3513
I2
aI0
aI0
aa(lp3514
I7
aI4
aI1
aa(lp3515
I6
aI3
aI1
aa(lp3516
I1
aI0
aI0
aa(lp3517
I0
aI0
aI0
aa(lp3518
I2
aI1
aI0
aa(lp3519
I2
aI0
aI0
aa(lp3520
I6
aI1
aI0
aa(lp3521
I3
aI0
aI0
aa(lp3522
I1
aI0
aI0
aa(lp3523
I5
aI5
aI1
aa(lp3524
I12
aI2
aI0
aa(lp3525
I0
aI0
aI0
aa(lp3526
I14
aI0
aI0
aa(lp3527
I3
aI0
aI0
aa(lp3528
I12
aI6
aI1
aa(lp3529
I6
aI3
aI0
aa(lp3530
I0
aI0
aI0
aa(lp3531
I0
aI0
aI0
aa(lp3532
I1
aI0
aI0
aa(lp3533
I0
aI0
aI0
aa(lp3534
I5
aI0
aI0
aa(lp3535
I18
aI1
aI0
aa(lp3536
I3
aI0
aI0
aa(lp3537
I21
aI4
aI1
aa(lp3538
I9
aI0
aI0
aa(lp3539
I3
aI1
aI0
aa(lp3540
I22
aI3
aI0
aa(lp3541
I3
aI0
aI0
aa(lp3542
I2
aI2
aI1
aa(lp3543
I0
aI0
aI0
aa(lp3544
I11
aI0
aI0
aa(lp3545
I2
aI0
aI0
aa(lp3546
I5
aI0
aI0
aa(lp3547
I1
aI0
aI0
aa(lp3548
I1
aI0
aI0
aa(lp3549
I3
aI0
aI0
aa(lp3550
I2
aI1
aI1
aa(lp3551
I7
aI2
aI1
aa(lp3552
I2
aI0
aI0
aa(lp3553
I5
aI1
aI0
aa(lp3554
I15
aI0
aI0
aa(lp3555
I4
aI3
aI1
aa(lp3556
I0
aI0
aI0
aa(lp3557
I4
aI2
aI1
aa(lp3558
I7
aI0
aI0
aa(lp3559
I3
aI0
aI0
aa(lp3560
I3
aI0
aI0
aa(lp3561
I10
aI1
aI0
aa(lp3562
I1
aI0
aI0
aa(lp3563
I1
aI0
aI0
aa(lp3564
I2
aI0
aI0
aa(lp3565
I1
aI0
aI0
aa(lp3566
I0
aI0
aI0
aa(lp3567
I0
aI0
aI0
aa(lp3568
I1
aI0
aI0
aa(lp3569
I8
aI7
aI0
aa(lp3570
I0
aI0
aI0
aa(lp3571
I1
aI0
aI0
aa(lp3572
I11
aI1
aI0
aa(lp3573
I5
aI0
aI0
aa(lp3574
I3
aI1
aI0
aa(lp3575
I8
aI1
aI0
aa(lp3576
I10
aI0
aI0
aa(lp3577
I14
aI7
aI0
aa(lp3578
I11
aI0
aI0
aa(lp3579
I13
aI6
aI0
aa(lp3580
I5
aI4
aI1
aa(lp3581
I12
aI4
aI0
aa(lp3582
I13
aI6
aI0
aa(lp3583
I11
aI3
aI1
aa(lp3584
I2
aI0
aI0
aa(lp3585
I5
aI2
aI0
aa(lp3586
I7
aI4
aI1
aa(lp3587
I0
aI0
aI0
aa(lp3588
I0
aI0
aI0
aa(lp3589
I0
aI0
aI0
aa(lp3590
I1
aI0
aI0
aa(lp3591
I0
aI0
aI0
aa(lp3592
I0
aI0
aI0
aa(lp3593
I1
aI0
aI0
aa(lp3594
I4
aI0
aI0
aa(lp3595
I20
aI6
aI0
aa(lp3596
I3
aI0
aI0
aa(lp3597
I7
aI4
aI0
aa(lp3598
I7
aI0
aI0
aa(lp3599
I3
aI0
aI0
aa(lp3600
I8
aI0
aI0
aa(lp3601
I8
aI2
aI0
aa(lp3602
I0
aI0
aI0
aa(lp3603
I1
aI0
aI0
aa(lp3604
I2
aI0
aI0
aa(lp3605
I2
aI1
aI0
aa(lp3606
I1
aI0
aI0
aa(lp3607
I10
aI3
aI0
aa(lp3608
I9
aI0
aI0
aa(lp3609
I5
aI0
aI0
aa(lp3610
I2
aI1
aI1
aa(lp3611
I10
aI4
aI1
aa(lp3612
I0
aI0
aI0
aa(lp3613
I6
aI5
aI1
aa(lp3614
I9
aI2
aI0
aa(lp3615
I9
aI9
aI1
aa(lp3616
I3
aI0
aI0
aa(lp3617
I3
aI0
aI0
aa(lp3618
I8
aI0
aI0
aa(lp3619
I1
aI1
aI1
aa(lp3620
I8
aI1
aI0
aa(lp3621
I16
aI0
aI0
aa(lp3622
I2
aI0
aI0
aa(lp3623
I8
aI1
aI1
aa(lp3624
I2
aI0
aI0
aa(lp3625
I12
aI4
aI1
aa(lp3626
I2
aI0
aI0
aa(lp3627
I3
aI2
aI0
aa(lp3628
I3
aI2
aI1
aa(lp3629
I7
aI1
aI1
aa(lp3630
I9
aI1
aI0
aa(lp3631
I17
aI0
aI0
aa(lp3632
I4
aI0
aI0
aa(lp3633
I4
aI0
aI0
aa(lp3634
I1
aI1
aI1
aa(lp3635
I1
aI0
aI0
aa(lp3636
I2
aI0
aI0
aa(lp3637
I2
aI0
aI0
aa(lp3638
I2
aI1
aI0
aa(lp3639
I6
aI1
aI0
aa(lp3640
I4
aI1
aI0
aa(lp3641
I8
aI3
aI0
aa(lp3642
I8
aI3
aI1
aa(lp3643
I3
aI3
aI1
aa(lp3644
I10
aI1
aI0
aa(lp3645
I3
aI0
aI0
aa(lp3646
I1
aI0
aI0
aa(lp3647
I2
aI0
aI0
aa(lp3648
I9
aI0
aI0
aa(lp3649
I4
aI0
aI0
aa(lp3650
I4
aI0
aI0
aa(lp3651
I1
aI0
aI0
aa(lp3652
I3
aI0
aI0
aa(lp3653
I6
aI1
aI0
aa(lp3654
I0
aI0
aI0
aa(lp3655
I1
aI1
aI1
aa(lp3656
I7
aI2
aI0
aa(lp3657
I3
aI0
aI0
aa(lp3658
I0
aI0
aI0
aa(lp3659
I1
aI0
aI0
aa(lp3660
I4
aI2
aI1
aa(lp3661
I0
aI0
aI0
aa(lp3662
I0
aI0
aI0
aa(lp3663
I3
aI1
aI1
aa(lp3664
I0
aI0
aI0
aa(lp3665
I0
aI0
aI0
aa(lp3666
I9
aI0
aI0
aa(lp3667
I1
aI0
aI0
aa(lp3668
I12
aI0
aI0
aa(lp3669
I2
aI1
aI1
aa(lp3670
I6
aI2
aI0
aa(lp3671
I4
aI1
aI0
aa(lp3672
I5
aI0
aI0
aa(lp3673
I0
aI0
aI0
aa(lp3674
I0
aI0
aI0
aa(lp3675
I22
aI4
aI0
aa(lp3676
I0
aI0
aI0
aa(lp3677
I0
aI0
aI0
aa(lp3678
I16
aI2
aI0
aa(lp3679
I2
aI0
aI0
aa(lp3680
I5
aI4
aI0
aa(lp3681
I0
aI0
aI0
aa(lp3682
I7
aI3
aI0
aa(lp3683
I4
aI0
aI0
aa(lp3684
I2
aI0
aI0
aa(lp3685
I20
aI2
aI0
aa(lp3686
I1
aI0
aI0
aa(lp3687
I0
aI0
aI0
aa(lp3688
I0
aI0
aI0
aa(lp3689
I1
aI1
aI1
aa(lp3690
I1
aI0
aI0
aa(lp3691
I5
aI0
aI0
aa(lp3692
I8
aI2
aI0
aa(lp3693
I5
aI1
aI1
aa(lp3694
I4
aI0
aI0
aa(lp3695
I7
aI0
aI0
aa(lp3696
I4
aI1
aI0
aa(lp3697
I1
aI0
aI0
aa(lp3698
I3
aI0
aI0
aa(lp3699
I19
aI1
aI0
aa(lp3700
I9
aI0
aI0
aa(lp3701
I12
aI6
aI0
aa(lp3702
I4
aI2
aI0
aa(lp3703
I1
aI0
aI0
aa(lp3704
I2
aI0
aI0
aa(lp3705
I2
aI0
aI0
aa(lp3706
I1
aI0
aI0
aa(lp3707
I0
aI0
aI0
aa(lp3708
I6
aI1
aI1
aa(lp3709
I9
aI0
aI0
aa(lp3710
I12
aI2
aI1
aa(lp3711
I2
aI0
aI0
aa(lp3712
I1
aI0
aI0
aa(lp3713
I0
aI0
aI0
aa(lp3714
I1
aI1
aI1
aa(lp3715
I3
aI2
aI0
aa(lp3716
I0
aI0
aI0
aa(lp3717
I2
aI1
aI1
aa(lp3718
I0
aI0
aI0
aa(lp3719
I3
aI0
aI0
aa(lp3720
I4
aI0
aI0
aa(lp3721
I6
aI0
aI0
aa(lp3722
I0
aI0
aI0
aa(lp3723
I11
aI3
aI0
aa(lp3724
I6
aI0
aI0
aa(lp3725
I8
aI0
aI0
aa(lp3726
I15
aI1
aI0
aa(lp3727
I3
aI2
aI1
aa(lp3728
I6
aI1
aI1
aa(lp3729
I21
aI3
aI1
aa(lp3730
I10
aI5
aI0
aa(lp3731
I8
aI5
aI0
aa(lp3732
I5
aI2
aI0
aa(lp3733
I0
aI0
aI0
aa(lp3734
I3
aI0
aI0
aa(lp3735
I0
aI0
aI0
aa(lp3736
I7
aI1
aI0
aa(lp3737
I17
aI0
aI0
aa(lp3738
I0
aI0
aI0
aa(lp3739
I0
aI0
aI0
aa(lp3740
I0
aI0
aI0
aa(lp3741
I1
aI0
aI0
aa(lp3742
I3
aI0
aI0
aa(lp3743
I1
aI0
aI0
aa(lp3744
I0
aI0
aI0
aa(lp3745
I15
aI3
aI0
aa(lp3746
I4
aI1
aI0
aa(lp3747
I5
aI0
aI0
aa(lp3748
I8
aI0
aI0
aa(lp3749
I1
aI0
aI0
aa(lp3750
I6
aI2
aI1
aa(lp3751
I6
aI3
aI1
aa(lp3752
I8
aI1
aI0
aa(lp3753
I5
aI0
aI0
aa(lp3754
I5
aI0
aI0
aa(lp3755
I1
aI1
aI1
aa(lp3756
I2
aI1
aI1
aa(lp3757
I0
aI0
aI0
aa(lp3758
I0
aI0
aI0
aa(lp3759
I0
aI0
aI0
aa(lp3760
I0
aI0
aI0
aa(lp3761
I3
aI0
aI0
aa(lp3762
I0
aI0
aI0
aa(lp3763
I0
aI0
aI0
aa(lp3764
I0
aI0
aI0
aa(lp3765
I1
aI0
aI0
aa(lp3766
I0
aI0
aI0
aa(lp3767
I0
aI0
aI0
aa(lp3768
I0
aI0
aI0
aa(lp3769
I5
aI0
aI0
aa(lp3770
I5
aI0
aI0
aa(lp3771
I5
aI1
aI0
aa(lp3772
I6
aI1
aI0
aa(lp3773
I4
aI4
aI1
aa(lp3774
I1
aI0
aI0
aa(lp3775
I6
aI5
aI1
aa(lp3776
I23
aI3
aI0
aa(lp3777
I3
aI0
aI0
aa(lp3778
I1
aI0
aI0
aa(lp3779
I1
aI0
aI0
aa(lp3780
I2
aI1
aI0
aa(lp3781
I0
aI0
aI0
aa(lp3782
I17
aI2
aI0
aa(lp3783
I0
aI0
aI0
aa(lp3784
I13
aI7
aI1
aa(lp3785
I1
aI1
aI1
aa(lp3786
I1
aI1
aI1
aa(lp3787
I4
aI0
aI0
aa(lp3788
I2
aI0
aI0
aa(lp3789
I9
aI2
aI0
aa(lp3790
I13
aI2
aI0
aa(lp3791
I1
aI0
aI0
aa(lp3792
I4
aI0
aI0
aa(lp3793
I14
aI2
aI0
aa(lp3794
I1
aI0
aI0
aa(lp3795
I6
aI0
aI0
aa(lp3796
I6
aI0
aI0
aa(lp3797
I3
aI0
aI0
aa(lp3798
I7
aI1
aI0
aa(lp3799
I4
aI0
aI0
aa(lp3800
I16
aI3
aI0
aa(lp3801
I9
aI1
aI0
aa(lp3802
I2
aI0
aI0
aa(lp3803
I3
aI0
aI0
aa(lp3804
I13
aI5
aI1
aa(lp3805
I3
aI1
aI1
aa(lp3806
I4
aI3
aI1
aa(lp3807
I4
aI0
aI0
aa(lp3808
I10
aI4
aI0
aa(lp3809
I10
aI0
aI0
aa(lp3810
I1
aI1
aI1
aa(lp3811
I2
aI1
aI1
aa(lp3812
I2
aI0
aI0
aa(lp3813
I15
aI7
aI0
aa(lp3814
I4
aI0
aI0
aa(lp3815
I1
aI0
aI0
aa(lp3816
I0
aI0
aI0
aa(lp3817
I5
aI0
aI0
aa(lp3818
I2
aI1
aI0
aa(lp3819
I0
aI0
aI0
aa(lp3820
I0
aI0
aI0
aa(lp3821
I11
aI1
aI1
aa(lp3822
I2
aI0
aI0
aa(lp3823
I1
aI0
aI0
aa(lp3824
I3
aI2
aI1
aa(lp3825
I3
aI1
aI1
aa(lp3826
I15
aI2
aI0
aa(lp3827
I10
aI1
aI0
aa(lp3828
I1
aI0
aI0
aa(lp3829
I4
aI1
aI1
aa(lp3830
I0
aI0
aI0
aa(lp3831
I0
aI0
aI0
aa(lp3832
I5
aI0
aI0
aa(lp3833
I2
aI0
aI0
aa(lp3834
I1
aI0
aI0
aa(lp3835
I6
aI0
aI0
aa(lp3836
I7
aI0
aI0
aa(lp3837
I1
aI0
aI0
aa(lp3838
I2
aI0
aI0
aa(lp3839
I5
aI2
aI1
aa(lp3840
I8
aI0
aI0
aa(lp3841
I5
aI2
aI0
aa(lp3842
I5
aI0
aI0
aa(lp3843
I3
aI2
aI1
aa(lp3844
I9
aI3
aI1
aa(lp3845
I8
aI3
aI0
aa(lp3846
I7
aI6
aI1
aa(lp3847
I0
aI0
aI0
aa(lp3848
I2
aI1
aI0
aa(lp3849
I18
aI0
aI0
aa(lp3850
I21
aI6
aI0
aa(lp3851
I0
aI0
aI0
aa(lp3852
I7
aI0
aI0
aa(lp3853
I0
aI0
aI0
aa(lp3854
I3
aI0
aI0
aa(lp3855
I3
aI1
aI0
aa(lp3856
I9
aI0
aI0
aa(lp3857
I14
aI3
aI0
aa(lp3858
I6
aI1
aI0
aa(lp3859
I0
aI0
aI0
aa(lp3860
I7
aI0
aI0
aa(lp3861
I5
aI2
aI1
aa(lp3862
I9
aI5
aI0
aa(lp3863
I12
aI3
aI0
aa(lp3864
I1
aI0
aI0
aa(lp3865
I6
aI1
aI0
aa(lp3866
I2
aI0
aI0
aa(lp3867
I8
aI3
aI1
aa(lp3868
I0
aI0
aI0
aa(lp3869
I6
aI0
aI0
aa(lp3870
I7
aI2
aI0
aa(lp3871
I0
aI0
aI0
aa(lp3872
I2
aI0
aI0
aa(lp3873
I2
aI1
aI0
aa(lp3874
I4
aI1
aI1
aa(lp3875
I6
aI6
aI1
aa(lp3876
I1
aI1
aI1
aa(lp3877
I2
aI1
aI0
aa(lp3878
I2
aI0
aI0
aa(lp3879
I3
aI0
aI0
aa(lp3880
I1
aI1
aI1
aa(lp3881
I0
aI0
aI0
aa(lp3882
I1
aI1
aI1
aa(lp3883
I9
aI2
aI0
aa(lp3884
I15
aI3
aI0
aa(lp3885
I4
aI1
aI0
aa(lp3886
I14
aI6
aI0
aa(lp3887
I8
aI2
aI0
aa(lp3888
I9
aI0
aI0
aa(lp3889
I3
aI0
aI0
aa(lp3890
I1
aI0
aI0
aa(lp3891
I4
aI0
aI0
aa(lp3892
I1
aI0
aI0
aa(lp3893
I9
aI6
aI0
aa(lp3894
I2
aI2
aI1
aa(lp3895
I3
aI0
aI0
aa(lp3896
I3
aI2
aI1
aa(lp3897
I10
aI1
aI0
aa(lp3898
I1
aI0
aI0
aa(lp3899
I3
aI1
aI0
aa(lp3900
I5
aI1
aI1
aa(lp3901
I3
aI1
aI0
aa(lp3902
I3
aI0
aI0
aa(lp3903
I20
aI1
aI0
aa(lp3904
I1
aI0
aI0
aa(lp3905
I5
aI1
aI0
aa(lp3906
I3
aI0
aI0
aa(lp3907
I6
aI1
aI0
aa(lp3908
I7
aI3
aI1
aa(lp3909
I10
aI10
aI1
aa(lp3910
I7
aI1
aI0
aa(lp3911
I11
aI5
aI1
aa(lp3912
I9
aI1
aI0
aa(lp3913
I3
aI1
aI1
aa(lp3914
I0
aI0
aI0
aa(lp3915
I0
aI0
aI0
aa(lp3916
I4
aI0
aI0
aa(lp3917
I2
aI0
aI0
aa(lp3918
I4
aI2
aI1
aa(lp3919
I19
aI0
aI0
aa(lp3920
I8
aI4
aI0
aa(lp3921
I0
aI0
aI0
aa(lp3922
I0
aI0
aI0
aa(lp3923
I0
aI0
aI0
aa(lp3924
I0
aI0
aI0
aa(lp3925
I0
aI0
aI0
aa(lp3926
I0
aI0
aI0
aa(lp3927
I1
aI0
aI0
aa(lp3928
I0
aI0
aI0
aa(lp3929
I0
aI0
aI0
aa(lp3930
I9
aI5
aI1
aa(lp3931
I9
aI3
aI0
aa(lp3932
I3
aI0
aI0
aa(lp3933
I6
aI0
aI0
aa(lp3934
I17
aI2
aI0
aa(lp3935
I4
aI1
aI1
aa(lp3936
I4
aI0
aI0
aa(lp3937
I10
aI0
aI0
aa(lp3938
I15
aI7
aI1
aa(lp3939
I3
aI1
aI0
aa(lp3940
I1
aI0
aI0
aa(lp3941
I1
aI1
aI1
aa(lp3942
I0
aI0
aI0
aa(lp3943
I0
aI0
aI0
aa(lp3944
I2
aI0
aI0
aa(lp3945
I23
aI4
aI0
aa(lp3946
I0
aI0
aI0
aa(lp3947
I0
aI0
aI0
aa(lp3948
I4
aI0
aI0
aa(lp3949
I0
aI0
aI0
aa(lp3950
I0
aI0
aI0
aa(lp3951
I0
aI0
aI0
aa(lp3952
I1
aI0
aI0
aa(lp3953
I3
aI0
aI0
aa(lp3954
I1
aI0
aI0
aa(lp3955
I1
aI0
aI0
aa(lp3956
I0
aI0
aI0
aa(lp3957
I0
aI0
aI0
aa(lp3958
I0
aI0
aI0
aa(lp3959
I0
aI0
aI0
aa(lp3960
I8
aI1
aI0
aa(lp3961
I5
aI0
aI0
aa(lp3962
I5
aI0
aI0
aa(lp3963
I4
aI0
aI0
aa(lp3964
I13
aI0
aI0
aa(lp3965
I2
aI0
aI0
aa(lp3966
I2
aI1
aI1
aa(lp3967
I3
aI2
aI1
aa(lp3968
I7
aI2
aI0
aa(lp3969
I2
aI0
aI0
aa(lp3970
I4
aI1
aI0
aa(lp3971
I5
aI2
aI0
aa(lp3972
I1
aI0
aI0
aa(lp3973
I0
aI0
aI0
aa(lp3974
I5
aI0
aI0
aa(lp3975
I8
aI4
aI0
aa(lp3976
I12
aI0
aI0
aa(lp3977
I10
aI0
aI0
aa(lp3978
I1
aI0
aI0
aa(lp3979
I7
aI0
aI0
aa(lp3980
I10
aI3
aI0
aa(lp3981
I6
aI0
aI0
aa(lp3982
I0
aI0
aI0
aa(lp3983
I1
aI1
aI1
aa(lp3984
I7
aI0
aI0
aa(lp3985
I2
aI0
aI0
aa(lp3986
I8
aI4
aI0
aa(lp3987
I5
aI0
aI0
aa(lp3988
I14
aI7
aI0
aa(lp3989
I13
aI6
aI0
aa(lp3990
I10
aI1
aI0
aa(lp3991
I4
aI1
aI0
aa(lp3992
I5
aI4
aI1
aa(lp3993
I3
aI0
aI0
aa(lp3994
I4
aI1
aI1
aa(lp3995
I6
aI5
aI1
aa(lp3996
I8
aI1
aI0
aa(lp3997
I2
aI1
aI1
aa(lp3998
I22
aI3
aI0
aa(lp3999
I18
aI2
aI0
aa(lp4000
I9
aI3
aI0
aa(lp4001
I8
aI0
aI0
aa(lp4002
I7
aI1
aI0
aa(lp4003
I10
aI5
aI1
aa(lp4004
I1
aI1
aI1
aa(lp4005
I0
aI0
aI0
aa(lp4006
I3
aI1
aI0
aa(lp4007
I1
aI0
aI0
aa(lp4008
I0
aI0
aI0
aa(lp4009
I6
aI0
aI0
aa(lp4010
I24
aI4
aI0
aa(lp4011
I3
aI1
aI0
aa(lp4012
I24
aI3
aI0
aa(lp4013
I19
aI2
aI0
aa(lp4014
I3
aI0
aI0
aa(lp4015
I1
aI0
aI0
aa(lp4016
I12
aI4
aI0
aa(lp4017
I13
aI4
aI0
aa(lp4018
I8
aI2
aI0
aa(lp4019
I0
aI0
aI0
aa(lp4020
I5
aI1
aI0
aa(lp4021
I3
aI2
aI1
aa(lp4022
I4
aI0
aI0
aa(lp4023
I0
aI0
aI0
aa(lp4024
I18
aI0
aI0
aa(lp4025
I6
aI2
aI0
aa(lp4026
I10
aI6
aI0
aa(lp4027
I4
aI1
aI0
aa(lp4028
I4
aI2
aI0
aa(lp4029
I5
aI2
aI0
aa(lp4030
I11
aI0
aI0
aa(lp4031
I3
aI0
aI0
aa(lp4032
I9
aI2
aI1
aa(lp4033
I5
aI0
aI0
aa(lp4034
I12
aI0
aI0
aa(lp4035
I2
aI1
aI1
aa(lp4036
I9
aI1
aI0
aa(lp4037
I7
aI0
aI0
aa(lp4038
I1
aI0
aI0
aa(lp4039
I2
aI0
aI0
aa(lp4040
I1
aI0
aI0
aa(lp4041
I6
aI2
aI0
aa(lp4042
I4
aI0
aI0
aa(lp4043
I5
aI3
aI0
aa(lp4044
I11
aI0
aI0
aa(lp4045
I6
aI1
aI0
aa(lp4046
I2
aI0
aI0
aa(lp4047
I7
aI0
aI0
aa(lp4048
I5
aI0
aI0
aa(lp4049
I3
aI0
aI0
aa(lp4050
I3
aI1
aI1
aa(lp4051
I10
aI0
aI0
aa(lp4052
I0
aI0
aI0
aa(lp4053
I2
aI0
aI0
aa(lp4054
I1
aI1
aI1
aa(lp4055
I1
aI0
aI0
aa(lp4056
I0
aI0
aI0
aa(lp4057
I0
aI0
aI0
aa(lp4058
I3
aI0
aI0
aa(lp4059
I1
aI0
aI0
aa(lp4060
I1
aI0
aI0
aa(lp4061
I10
aI0
aI0
aa(lp4062
I2
aI1
aI0
aa(lp4063
I3
aI0
aI0
aa(lp4064
I4
aI1
aI0
aa(lp4065
I21
aI1
aI0
aa(lp4066
I10
aI0
aI0
aa(lp4067
I1
aI0
aI0
aa(lp4068
I2
aI2
aI1
aa(lp4069
I13
aI1
aI1
aa(lp4070
I5
aI0
aI0
aa(lp4071
I6
aI1
aI1
aa(lp4072
I0
aI0
aI0
aa(lp4073
I11
aI0
aI0
aa(lp4074
I9
aI1
aI0
aa(lp4075
I0
aI0
aI0
aa(lp4076
I3
aI0
aI0
aa(lp4077
I0
aI0
aI0
aa(lp4078
I3
aI0
aI0
aa(lp4079
I0
aI0
aI0
aa(lp4080
I0
aI0
aI0
aa(lp4081
I11
aI2
aI1
aa(lp4082
I0
aI0
aI0
aa(lp4083
I0
aI0
aI0
aa(lp4084
I0
aI0
aI0
aa(lp4085
I1
aI0
aI0
aa(lp4086
I1
aI0
aI0
aa(lp4087
I0
aI0
aI0
aa(lp4088
I0
aI0
aI0
aa(lp4089
I0
aI0
aI0
aa(lp4090
I0
aI0
aI0
aa(lp4091
I0
aI0
aI0
aa(lp4092
I0
aI0
aI0
aa(lp4093
I0
aI0
aI0
aa(lp4094
I0
aI0
aI0
aa(lp4095
I0
aI0
aI0
aa(lp4096
I0
aI0
aI0
aa(lp4097
I4
aI0
aI0
aa(lp4098
I1
aI0
aI0
aa(lp4099
I0
aI0
aI0
aa(lp4100
I0
aI0
aI0
aa(lp4101
I1
aI0
aI0
aa(lp4102
I0
aI0
aI0
aa(lp4103
I0
aI0
aI0
aa(lp4104
I0
aI0
aI0
aa(lp4105
I0
aI0
aI0
aa(lp4106
I4
aI0
aI0
aa(lp4107
I1
aI0
aI0
aa(lp4108
I0
aI0
aI0
aa(lp4109
I0
aI0
aI0
aa(lp4110
I0
aI0
aI0
aa(lp4111
I1
aI0
aI0
aa(lp4112
I0
aI0
aI0
aa(lp4113
I1
aI0
aI0
aa(lp4114
I1
aI0
aI0
aa(lp4115
I0
aI0
aI0
aa(lp4116
I0
aI0
aI0
aa(lp4117
I1
aI0
aI0
aa(lp4118
I1
aI0
aI0
aa(lp4119
I5
aI0
aI0
aa(lp4120
I1
aI0
aI0
aa(lp4121
I1
aI1
aI1
aa(lp4122
I1
aI0
aI0
aa(lp4123
I1
aI0
aI0
aa(lp4124
I0
aI0
aI0
aa(lp4125
I5
aI0
aI0
aa(lp4126
I0
aI0
aI0
aa(lp4127
I1
aI0
aI0
aa(lp4128
I2
aI0
aI0
aa(lp4129
I0
aI0
aI0
aa(lp4130
I2
aI0
aI0
aa(lp4131
I0
aI0
aI0
aa(lp4132
I4
aI0
aI0
aa(lp4133
I2
aI0
aI0
aa(lp4134
I0
aI0
aI0
aa(lp4135
I0
aI0
aI0
aa(lp4136
I1
aI0
aI0
aa(lp4137
I0
aI0
aI0
aa(lp4138
I0
aI0
aI0
aa(lp4139
I1
aI1
aI1
aa(lp4140
I4
aI0
aI0
aa(lp4141
I2
aI0
aI0
aa(lp4142
I1
aI0
aI0
aa(lp4143
I0
aI0
aI0
aa(lp4144
I0
aI0
aI0
aa(lp4145
I0
aI0
aI0
aa(lp4146
I0
aI0
aI0
aa(lp4147
I0
aI0
aI0
aa(lp4148
I0
aI0
aI0
aa(lp4149
I0
aI0
aI0
aa(lp4150
I0
aI0
aI0
aa(lp4151
I0
aI0
aI0
aa(lp4152
I0
aI0
aI0
aa(lp4153
I1
aI0
aI0
aa(lp4154
I0
aI0
aI0
aa(lp4155
I12
aI1
aI0
aa(lp4156
I0
aI0
aI0
aa(lp4157
I2
aI1
aI0
aa(lp4158
I0
aI0
aI0
aa(lp4159
I0
aI0
aI0
aa(lp4160
I5
aI1
aI0
aa(lp4161
I0
aI0
aI0
aa(lp4162
I0
aI0
aI0
aa(lp4163
I1
aI0
aI0
aa(lp4164
I6
aI0
aI0
aa(lp4165
I0
aI0
aI0
aa(lp4166
I0
aI0
aI0
aa(lp4167
I0
aI0
aI0
aa(lp4168
I0
aI0
aI0
aa(lp4169
I0
aI0
aI0
aa(lp4170
I11
aI5
aI0
aa(lp4171
I2
aI0
aI0
aa(lp4172
I0
aI0
aI0
aa(lp4173
I0
aI0
aI0
aa(lp4174
I0
aI0
aI0
aa(lp4175
I0
aI0
aI0
aa(lp4176
I0
aI0
aI0
aa(lp4177
I0
aI0
aI0
aa(lp4178
I5
aI0
aI0
aa(lp4179
I0
aI0
aI0
aa(lp4180
I0
aI0
aI0
aa(lp4181
I1
aI0
aI0
aa(lp4182
I11
aI0
aI0
aa(lp4183
I0
aI0
aI0
aa(lp4184
I0
aI0
aI0
aa(lp4185
I1
aI0
aI0
aa(lp4186
I3
aI2
aI1
aa(lp4187
I4
aI1
aI0
aa(lp4188
I8
aI1
aI0
aa(lp4189
I12
aI0
aI0
aa(lp4190
I6
aI0
aI0
aa(lp4191
I9
aI4
aI0
aa(lp4192
I8
aI4
aI1
aa(lp4193
I7
aI2
aI1
aa(lp4194
I1
aI1
aI1
aa(lp4195
I4
aI3
aI1
aa(lp4196
I3
aI0
aI0
aa(lp4197
I11
aI4
aI0
aa(lp4198
I5
aI1
aI0
aa(lp4199
I13
aI3
aI0
aa(lp4200
I4
aI1
aI1
aa(lp4201
I11
aI6
aI1
aa(lp4202
I3
aI2
aI0
aa(lp4203
I1
aI0
aI0
aa(lp4204
I0
aI0
aI0
aa(lp4205
I6
aI2
aI0
aa(lp4206
I8
aI6
aI1
aa(lp4207
I2
aI1
aI1
aa(lp4208
I10
aI3
aI1
aa(lp4209
I7
aI0
aI0
aa(lp4210
I5
aI1
aI0
aa(lp4211
I4
aI0
aI0
aa(lp4212
I1
aI1
aI1
aa(lp4213
I5
aI2
aI0
aa(lp4214
I3
aI2
aI1
aa(lp4215
I4
aI0
aI0
aa(lp4216
I5
aI3
aI0
aa(lp4217
I0
aI0
aI0
aa(lp4218
I1
aI0
aI0
aa(lp4219
I1
aI0
aI0
aa(lp4220
I2
aI0
aI0
aa(lp4221
I2
aI0
aI0
aa(lp4222
I1
aI0
aI0
aa(lp4223
I5
aI1
aI0
aa(lp4224
I20
aI2
aI0
aa(lp4225
I1
aI0
aI0
aa(lp4226
I3
aI0
aI0
aa(lp4227
I1
aI1
aI1
aa(lp4228
I0
aI0
aI0
aa(lp4229
I1
aI1
aI1
aa(lp4230
I1
aI0
aI0
aa(lp4231
I3
aI2
aI1
aa(lp4232
I3
aI0
aI0
aa(lp4233
I3
aI2
aI1
aa(lp4234
I3
aI3
aI1
aa(lp4235
I0
aI0
aI0
aa(lp4236
I2
aI0
aI0
aa(lp4237
I13
aI2
aI0
aa(lp4238
I0
aI0
aI0
aa(lp4239
I12
aI4
aI0
aa(lp4240
I25
aI3
aI0
aa(lp4241
I18
aI2
aI0
aa(lp4242
I1
aI0
aI0
aa(lp4243
I1
aI0
aI0
aa(lp4244
I0
aI0
aI0
aa(lp4245
I1
aI0
aI0
aa(lp4246
I10
aI2
aI0
aa(lp4247
I0
aI0
aI0
aa(lp4248
I4
aI0
aI0
aa(lp4249
I0
aI0
aI0
aa(lp4250
I0
aI0
aI0
aa(lp4251
I1
aI0
aI0
aa(lp4252
I0
aI0
aI0
aa(lp4253
I23
aI3
aI0
aa(lp4254
I3
aI0
aI0
aa(lp4255
I12
aI0
aI0
aa(lp4256
I11
aI1
aI0
aa(lp4257
I11
aI4
aI1
aa(lp4258
I13
aI1
aI0
aa(lp4259
I0
aI0
aI0
aa(lp4260
I0
aI0
aI0
aa(lp4261
I11
aI0
aI0
aa(lp4262
I2
aI0
aI0
aa(lp4263
I14
aI5
aI0
aa(lp4264
I7
aI0
aI0
aa(lp4265
I9
aI2
aI1
aa(lp4266
I12
aI0
aI0
aa(lp4267
I0
aI0
aI0
aa(lp4268
I17
aI3
aI0
aa(lp4269
I9
aI2
aI0
aa(lp4270
I1
aI0
aI0
aa(lp4271
I15
aI5
aI0
aa(lp4272
I0
aI0
aI0
aa(lp4273
I0
aI0
aI0
aa(lp4274
I0
aI0
aI0
aa(lp4275
I0
aI0
aI0
aa(lp4276
I0
aI0
aI0
aa(lp4277
I0
aI0
aI0
aa(lp4278
I0
aI0
aI0
aa(lp4279
I8
aI0
aI0
aa(lp4280
I0
aI0
aI0
aa(lp4281
I6
aI0
aI0
aa(lp4282
I8
aI1
aI0
aa(lp4283
I0
aI0
aI0
aa(lp4284
I1
aI0
aI0
aa(lp4285
I0
aI0
aI0
aa(lp4286
I1
aI0
aI0
aa(lp4287
I0
aI0
aI0
aa(lp4288
I11
aI0
aI0
aa(lp4289
I0
aI0
aI0
aa(lp4290
I24
aI3
aI0
aa(lp4291
I3
aI0
aI0
aa(lp4292
I0
aI0
aI0
aa(lp4293
I4
aI0
aI0
aa(lp4294
I5
aI1
aI1
aa(lp4295
I14
aI2
aI1
aa(lp4296
I10
aI4
aI1
aa(lp4297
I4
aI0
aI0
aa(lp4298
I2
aI0
aI0
aa(lp4299
I3
aI1
aI0
aa(lp4300
I0
aI0
aI0
aa(lp4301
I6
aI2
aI0
aa(lp4302
I1
aI0
aI0
aa(lp4303
I8
aI2
aI0
aa(lp4304
I4
aI0
aI0
aa(lp4305
I0
aI0
aI0
aa(lp4306
I4
aI2
aI0
aa(lp4307
I5
aI2
aI0
aa(lp4308
I4
aI2
aI0
aa(lp4309
I5
aI5
aI1
aa(lp4310
I0
aI0
aI0
aa(lp4311
I2
aI2
aI1
aa(lp4312
I11
aI1
aI0
aa(lp4313
I2
aI0
aI0
aa(lp4314
I2
aI0
aI0
aa(lp4315
I0
aI0
aI0
aa(lp4316
I1
aI0
aI0
aa(lp4317
I0
aI0
aI0
aa(lp4318
I0
aI0
aI0
aa(lp4319
I1
aI0
aI0
aa(lp4320
I1
aI0
aI0
aa(lp4321
I2
aI0
aI0
aa(lp4322
I2
aI0
aI0
aa(lp4323
I3
aI2
aI0
aa(lp4324
I1
aI1
aI1
aa(lp4325
I22
aI7
aI1
aa(lp4326
I5
aI2
aI1
aa(lp4327
I4
aI0
aI0
aa(lp4328
I7
aI1
aI0
aa(lp4329
I0
aI0
aI0
aa(lp4330
I10
aI4
aI0
aa(lp4331
I13
aI0
aI0
aa(lp4332
I5
aI2
aI0
aa(lp4333
I16
aI3
aI0
aa(lp4334
I6
aI1
aI0
aa(lp4335
I9
aI4
aI0
aa(lp4336
I11
aI11
aI1
aa(lp4337
I12
aI6
aI1
aa(lp4338
I6
aI2
aI0
aa(lp4339
I4
aI2
aI0
aa(lp4340
I6
aI2
aI0
aa(lp4341
I2
aI1
aI0
aa(lp4342
I5
aI0
aI0
aa(lp4343
I2
aI0
aI0
aa(lp4344
I3
aI3
aI1
aa(lp4345
I2
aI2
aI1
aa(lp4346
I7
aI2
aI1
aa(lp4347
I5
aI0
aI0
aa(lp4348
I10
aI5
aI1
aa(lp4349
I9
aI1
aI0
aa(lp4350
I3
aI2
aI1
aa(lp4351
I0
aI0
aI0
aa(lp4352
I0
aI0
aI0
aa(lp4353
I0
aI0
aI0
aa(lp4354
I13
aI7
aI1
aa(lp4355
I2
aI0
aI0
aa(lp4356
I6
aI0
aI0
aa(lp4357
I4
aI2
aI0
aa(lp4358
I0
aI0
aI0
aa(lp4359
I0
aI0
aI0
aa(lp4360
I0
aI0
aI0
aa(lp4361
I0
aI0
aI0
aa(lp4362
I0
aI0
aI0
aa(lp4363
I3
aI0
aI0
aa(lp4364
I0
aI0
aI0
aa(lp4365
I2
aI0
aI0
aa(lp4366
I16
aI7
aI0
aa(lp4367
I3
aI0
aI0
aa(lp4368
I6
aI1
aI0
aa(lp4369
I5
aI0
aI0
aa(lp4370
I3
aI1
aI1
aa(lp4371
I4
aI0
aI0
aa(lp4372
I1
aI0
aI0
aa(lp4373
I16
aI8
aI1
aa(lp4374
I9
aI2
aI0
aa(lp4375
I20
aI0
aI0
aa(lp4376
I7
aI1
aI1
aa(lp4377
I7
aI0
aI0
aa(lp4378
I0
aI0
aI0
aa(lp4379
I5
aI1
aI0
aa(lp4380
I1
aI0
aI0
aa(lp4381
I7
aI2
aI0
aa(lp4382
I8
aI2
aI0
aa(lp4383
I9
aI2
aI0
aa(lp4384
I6
aI0
aI0
aa(lp4385
I10
aI6
aI1
aa(lp4386
I12
aI6
aI1
aa(lp4387
I2
aI0
aI0
aa(lp4388
I6
aI4
aI1
aa(lp4389
I7
aI2
aI0
aa(lp4390
I0
aI0
aI0
aa(lp4391
I17
aI8
aI0
aa(lp4392
I10
aI2
aI0
aa(lp4393
I12
aI3
aI0
aa(lp4394
I16
aI2
aI0
aa(lp4395
I2
aI0
aI0
aa(lp4396
I2
aI1
aI1
aa(lp4397
I1
aI0
aI0
aa(lp4398
I13
aI0
aI0
aa(lp4399
I0
aI0
aI0
aa(lp4400
I2
aI1
aI0
aa(lp4401
I11
aI2
aI0
aa(lp4402
I0
aI0
aI0
aa(lp4403
I8
aI0
aI0
aa(lp4404
I0
aI0
aI0
aa(lp4405
I3
aI0
aI0
aa(lp4406
I6
aI0
aI0
aa(lp4407
I13
aI0
aI0
aa(lp4408
I4
aI1
aI0
aa(lp4409
I10
aI5
aI0
aa(lp4410
I4
aI0
aI0
aa(lp4411
I13
aI0
aI0
aa(lp4412
I9
aI3
aI0
aa(lp4413
I6
aI3
aI1
aa(lp4414
I5
aI0
aI0
aa(lp4415
I0
aI0
aI0
aa(lp4416
I0
aI0
aI0
aa(lp4417
I0
aI0
aI0
aa(lp4418
I8
aI2
aI0
aa(lp4419
I6
aI3
aI0
aa(lp4420
I8
aI2
aI1
aa(lp4421
I14
aI2
aI0
aa(lp4422
I5
aI1
aI1
aa(lp4423
I21
aI2
aI0
aa(lp4424
I21
aI0
aI0
aa(lp4425
I10
aI0
aI0
aa(lp4426
I12
aI6
aI0
aa(lp4427
I9
aI3
aI1
aa(lp4428
I3
aI0
aI0
aa(lp4429
I3
aI0
aI0
aa(lp4430
I1
aI0
aI0
aa(lp4431
I7
aI0
aI0
aa(lp4432
I5
aI2
aI0
aa(lp4433
I9
aI4
aI0
aa(lp4434
I7
aI0
aI0
aa(lp4435
I2
aI2
aI1
aa(lp4436
I10
aI1
aI0
aa(lp4437
I2
aI1
aI0
aa(lp4438
I2
aI0
aI0
aa(lp4439
I0
aI0
aI0
aa(lp4440
I7
aI3
aI0
aa(lp4441
I5
aI3
aI0
aa(lp4442
I2
aI0
aI0
aa(lp4443
I1
aI1
aI1
aa(lp4444
I2
aI0
aI0
aa(lp4445
I0
aI0
aI0
aa(lp4446
I1
aI0
aI0
aa(lp4447
I6
aI2
aI0
aa(lp4448
I3
aI3
aI1
aa(lp4449
I8
aI0
aI0
aa(lp4450
I0
aI0
aI0
aa(lp4451
I25
aI3
aI0
aa(lp4452
I5
aI0
aI0
aa(lp4453
I4
aI0
aI0
aa(lp4454
I1
aI1
aI1
aa(lp4455
I0
aI0
aI0
aa(lp4456
I2
aI0
aI0
aa(lp4457
I4
aI0
aI0
aa(lp4458
I22
aI0
aI0
aa(lp4459
I0
aI0
aI0
aa(lp4460
I1
aI0
aI0
aa(lp4461
I4
aI0
aI0
aa(lp4462
I10
aI2
aI0
aa(lp4463
I25
aI4
aI0
aa(lp4464
I7
aI1
aI0
aa(lp4465
I0
aI0
aI0
aa(lp4466
I0
aI0
aI0
aa(lp4467
I0
aI0
aI0
aa(lp4468
I12
aI1
aI0
aa(lp4469
I15
aI2
aI0
aa(lp4470
I0
aI0
aI0
aa(lp4471
I3
aI2
aI1
aa(lp4472
I0
aI0
aI0
aa(lp4473
I4
aI2
aI0
aa(lp4474
I2
aI0
aI0
aa(lp4475
I8
aI0
aI0
aa(lp4476
I3
aI0
aI0
aa(lp4477
I10
aI1
aI0
aa(lp4478
I12
aI4
aI0
aa(lp4479
I18
aI3
aI0
aa(lp4480
I10
aI2
aI0
aa(lp4481
I2
aI1
aI1
aa(lp4482
I6
aI1
aI0
aa(lp4483
I14
aI3
aI0
aa(lp4484
I7
aI2
aI0
aa(lp4485
I3
aI2
aI1
aa(lp4486
I10
aI0
aI0
aa(lp4487
I10
aI4
aI1
aa(lp4488
I0
aI0
aI0
aa(lp4489
I13
aI6
aI0
aa(lp4490
I2
aI0
aI0
aa(lp4491
I3
aI1
aI1
aa(lp4492
I7
aI0
aI0
aa(lp4493
I5
aI0
aI0
aa(lp4494
I8
aI0
aI0
aa(lp4495
I9
aI2
aI0
aa(lp4496
I23
aI7
aI0
aa(lp4497
I5
aI5
aI1
aa(lp4498
I12
aI12
aI1
aa(lp4499
I0
aI0
aI0
aa(lp4500
I19
aI2
aI0
aa(lp4501
I15
aI3
aI1
aa(lp4502
I0
aI0
aI0
aa(lp4503
I10
aI0
aI0
aa(lp4504
I4
aI0
aI0
aa(lp4505
I6
aI2
aI1
aa(lp4506
I6
aI1
aI0
aa(lp4507
I4
aI0
aI0
aa(lp4508
I13
aI5
aI1
aa(lp4509
I7
aI5
aI0
aa(lp4510
I15
aI8
aI1
aa(lp4511
I10
aI2
aI0
aa(lp4512
I5
aI1
aI0
aa(lp4513
I1
aI0
aI0
aa(lp4514
I1
aI0
aI0
aa(lp4515
I1
aI0
aI0
aa(lp4516
I8
aI2
aI0
aa(lp4517
I4
aI2
aI0
aa(lp4518
I4
aI1
aI0
aa(lp4519
I0
aI0
aI0
aa(lp4520
I1
aI0
aI0
aa(lp4521
I2
aI0
aI0
aa(lp4522
I3
aI2
aI0
aa(lp4523
I0
aI0
aI0
aa(lp4524
I0
aI0
aI0
aa(lp4525
I0
aI0
aI0
aa(lp4526
I4
aI4
aI1
aa(lp4527
I8
aI0
aI0
aa(lp4528
I2
aI1
aI0
aa(lp4529
I1
aI0
aI0
aa(lp4530
I7
aI2
aI0
aa(lp4531
I8
aI3
aI0
aa(lp4532
I6
aI5
aI0
aa(lp4533
I14
aI1
aI0
aa(lp4534
I1
aI0
aI0
aa(lp4535
I7
aI0
aI0
aa(lp4536
I4
aI0
aI0
aa(lp4537
I7
aI5
aI1
aa(lp4538
I1
aI1
aI1
aa(lp4539
I2
aI0
aI0
aa(lp4540
I5
aI3
aI1
aa(lp4541
I1
aI1
aI1
aa(lp4542
I1
aI0
aI0
aa(lp4543
I0
aI0
aI0
aa(lp4544
I3
aI0
aI0
aa(lp4545
I1
aI0
aI0
aa(lp4546
I11
aI2
aI0
aa(lp4547
I17
aI3
aI0
aa(lp4548
I7
aI1
aI0
aa(lp4549
I16
aI2
aI0
aa(lp4550
I26
aI4
aI0
aa(lp4551
I15
aI1
aI0
aa(lp4552
I2
aI0
aI0
aa(lp4553
I1
aI0
aI0
aa(lp4554
I7
aI2
aI1
aa(lp4555
I1
aI0
aI0
aa(lp4556
I1
aI0
aI0
aa(lp4557
I3
aI1
aI0
aa(lp4558
I1
aI0
aI0
aa(lp4559
I1
aI0
aI0
aa(lp4560
I7
aI0
aI0
aa(lp4561
I3
aI0
aI0
aa(lp4562
I3
aI0
aI0
aa(lp4563
I17
aI8
aI1
aa(lp4564
I18
aI8
aI0
aa(lp4565
I6
aI0
aI0
aa(lp4566
I16
aI2
aI0
aa(lp4567
I20
aI2
aI0
aa(lp4568
I8
aI0
aI0
aa(lp4569
I5
aI1
aI0
aa(lp4570
I1
aI0
aI0
aa(lp4571
I6
aI4
aI1
aa(lp4572
I0
aI0
aI0
aa(lp4573
I2
aI0
aI0
aa(lp4574
I0
aI0
aI0
aa(lp4575
I6
aI1
aI0
aa(lp4576
I13
aI7
aI1
aa(lp4577
I10
aI3
aI1
aa(lp4578
I0
aI0
aI0
aa(lp4579
I0
aI0
aI0
aa(lp4580
I0
aI0
aI0
aa(lp4581
I1
aI0
aI0
aa(lp4582
I5
aI3
aI1
aa(lp4583
I3
aI2
aI1
aa(lp4584
I9
aI0
aI0
aa(lp4585
I1
aI1
aI1
aa(lp4586
I3
aI0
aI0
aa(lp4587
I0
aI0
aI0
aa(lp4588
I0
aI0
aI0
aa(lp4589
I1
aI0
aI0
aa(lp4590
I14
aI8
aI1
aa(lp4591
I5
aI2
aI0
aa(lp4592
I0
aI0
aI0
aa(lp4593
I2
aI0
aI0
aa(lp4594
I0
aI0
aI0
aa(lp4595
I5
aI0
aI0
aa(lp4596
I2
aI1
aI1
aa(lp4597
I1
aI0
aI0
aa(lp4598
I7
aI0
aI0
aa(lp4599
I1
aI0
aI0
aa(lp4600
I1
aI0
aI0
aa(lp4601
I8
aI0
aI0
aa(lp4602
I1
aI0
aI0
aa(lp4603
I11
aI0
aI0
aa(lp4604
I1
aI0
aI0
aa(lp4605
I7
aI4
aI0
aa(lp4606
I11
aI1
aI1
aa(lp4607
I17
aI2
aI0
aa(lp4608
I10
aI4
aI0
aa(lp4609
I4
aI3
aI1
aa(lp4610
I0
aI0
aI0
aa(lp4611
I16
aI5
aI0
aa(lp4612
I0
aI0
aI0
aa(lp4613
I5
aI0
aI0
aa(lp4614
I23
aI0
aI0
aa(lp4615
I22
aI2
aI0
aa(lp4616
I2
aI0
aI0
aa(lp4617
I0
aI0
aI0
aa(lp4618
I4
aI1
aI0
aa(lp4619
I11
aI5
aI1
aa(lp4620
I26
aI3
aI0
aa(lp4621
I12
aI2
aI0
aa(lp4622
I1
aI0
aI0
aa(lp4623
I6
aI2
aI1
aa(lp4624
I5
aI3
aI1
aa(lp4625
I2
aI0
aI0
aa(lp4626
I10
aI2
aI0
aa(lp4627
I16
aI1
aI0
aa(lp4628
I0
aI0
aI0
aa(lp4629
I10
aI3
aI0
aa(lp4630
I3
aI0
aI0
aa(lp4631
I1
aI0
aI0
aa(lp4632
I7
aI3
aI1
aa(lp4633
I0
aI0
aI0
aa(lp4634
I4
aI2
aI0
aa(lp4635
I0
aI0
aI0
aa(lp4636
I0
aI0
aI0
aa(lp4637
I0
aI0
aI0
aa(lp4638
I2
aI1
aI0
aa(lp4639
I18
aI3
aI0
aa(lp4640
I0
aI0
aI0
aa(lp4641
I14
aI7
aI0
aa(lp4642
I4
aI2
aI0
aa(lp4643
I1
aI0
aI0
aa(lp4644
I3
aI0
aI0
aa(lp4645
I6
aI2
aI0
aa(lp4646
I8
aI1
aI0
aa(lp4647
I3
aI0
aI0
aa(lp4648
I8
aI2
aI0
aa(lp4649
I0
aI0
aI0
aa(lp4650
I13
aI4
aI0
aa(lp4651
I1
aI0
aI0
aa(lp4652
I6
aI3
aI0
aa(lp4653
I0
aI0
aI0
aa(lp4654
I13
aI3
aI0
aa(lp4655
I0
aI0
aI0
aa(lp4656
I0
aI0
aI0
aa(lp4657
I6
aI3
aI1
aa(lp4658
I3
aI1
aI1
aa(lp4659
I3
aI0
aI0
aa(lp4660
I10
aI1
aI0
aa(lp4661
I0
aI0
aI0
aa(lp4662
I4
aI4
aI1
aa(lp4663
I0
aI0
aI0
aa(lp4664
I8
aI3
aI0
aa(lp4665
I23
aI2
aI0
aa(lp4666
I1
aI0
aI0
aa(lp4667
I26
aI3
aI0
aa(lp4668
I14
aI0
aI0
aa(lp4669
I11
aI1
aI0
aa(lp4670
I14
aI0
aI0
aa(lp4671
I0
aI0
aI0
aa(lp4672
I11
aI0
aI0
aa(lp4673
I3
aI0
aI0
aa(lp4674
I11
aI2
aI0
aa(lp4675
I1
aI0
aI0
aa(lp4676
I1
aI0
aI0
aa(lp4677
I0
aI0
aI0
aa(lp4678
I6
aI1
aI0
aa(lp4679
I11
aI7
aI1
aa(lp4680
I9
aI3
aI0
aa(lp4681
I4
aI2
aI0
aa(lp4682
I2
aI0
aI0
aa(lp4683
I1
aI0
aI0
aa(lp4684
I2
aI0
aI0
aa(lp4685
I2
aI0
aI0
aa(lp4686
I1
aI0
aI0
aa(lp4687
I1
aI0
aI0
aa(lp4688
I1
aI0
aI0
aa(lp4689
I1
aI0
aI0
aa(lp4690
I0
aI0
aI0
aa(lp4691
I4
aI1
aI0
aa(lp4692
I0
aI0
aI0
aa(lp4693
I9
aI3
aI0
aa(lp4694
I1
aI0
aI0
aa(lp4695
I2
aI0
aI0
aa(lp4696
I5
aI1
aI1
aa(lp4697
I4
aI2
aI1
aa(lp4698
I9
aI5
aI1
aa(lp4699
I5
aI2
aI1
aa(lp4700
I13
aI0
aI0
aa(lp4701
I1
aI0
aI0
aa(lp4702
I3
aI0
aI0
aa(lp4703
I6
aI0
aI0
aa(lp4704
I2
aI0
aI0
aa(lp4705
I7
aI0
aI0
aa(lp4706
I15
aI9
aI1
aa(lp4707
I7
aI2
aI1
aa(lp4708
I8
aI2
aI0
aa(lp4709
I6
aI0
aI0
aa(lp4710
I3
aI0
aI0
aa(lp4711
I11
aI3
aI0
aa(lp4712
I3
aI0
aI0
aa(lp4713
I1
aI1
aI1
aa(lp4714
I0
aI0
aI0
aa(lp4715
I0
aI0
aI0
aa(lp4716
I3
aI0
aI0
aa(lp4717
I5
aI1
aI0
aa(lp4718
I4
aI0
aI0
aa(lp4719
I16
aI10
aI1
aa(lp4720
I1
aI0
aI0
aa(lp4721
I0
aI0
aI0
aa(lp4722
I0
aI0
aI0
aa(lp4723
I8
aI7
aI1
aa(lp4724
I5
aI1
aI0
aa(lp4725
I3
aI0
aI0
aa(lp4726
I10
aI4
aI0
aa(lp4727
I3
aI3
aI1
aa(lp4728
I1
aI1
aI1
aa(lp4729
I6
aI0
aI0
aa(lp4730
I2
aI1
aI1
aa(lp4731
I7
aI2
aI0
aa(lp4732
I0
aI0
aI0
aa(lp4733
I3
aI1
aI0
aa(lp4734
I0
aI0
aI0
aa(lp4735
I4
aI0
aI0
aa(lp4736
I4
aI0
aI0
aa(lp4737
I1
aI0
aI0
aa(lp4738
I1
aI0
aI0
aa(lp4739
I0
aI0
aI0
aa(lp4740
I2
aI0
aI0
aa(lp4741
I7
aI0
aI0
aa(lp4742
I4
aI1
aI1
aa(lp4743
I14
aI4
aI0
aa(lp4744
I11
aI0
aI0
aa(lp4745
I5
aI0
aI0
aa(lp4746
I21
aI2
aI0
aa(lp4747
I6
aI0
aI0
aa(lp4748
I3
aI0
aI0
aa(lp4749
I1
aI0
aI0
aa(lp4750
I1
aI0
aI0
aa(lp4751
I3
aI0
aI0
aa(lp4752
I2
aI1
aI0
aa(lp4753
I22
aI2
aI0
aa(lp4754
I10
aI3
aI0
aa(lp4755
I16
aI8
aI0
aa(lp4756
I7
aI2
aI0
aa(lp4757
I1
aI0
aI0
aa(lp4758
I14
aI3
aI0
aa(lp4759
I3
aI0
aI0
aa(lp4760
I14
aI6
aI1
aa(lp4761
I7
aI4
aI1
aa(lp4762
I2
aI2
aI1
aa(lp4763
I8
aI2
aI1
aa(lp4764
I11
aI2
aI0
aa(lp4765
I8
aI1
aI0
aa(lp4766
I6
aI1
aI1
aa(lp4767
I19
aI3
aI0
aa(lp4768
I12
aI2
aI0
aa(lp4769
I19
aI1
aI1
aa(lp4770
I5
aI0
aI0
aa(lp4771
I8
aI4
aI0
aa(lp4772
I5
aI0
aI0
aa(lp4773
I12
aI0
aI0
aa(lp4774
I14
aI0
aI0
aa(lp4775
I2
aI0
aI0
aa(lp4776
I11
aI3
aI1
aa(lp4777
I3
aI0
aI0
aa(lp4778
I8
aI5
aI0
aa(lp4779
I27
aI3
aI0
aa(lp4780
I8
aI0
aI0
aa(lp4781
I4
aI1
aI0
aa(lp4782
I14
aI0
aI0
aa(lp4783
I15
aI3
aI0
aa(lp4784
I23
aI2
aI0
aa(lp4785
I9
aI2
aI0
aa(lp4786
I6
aI2
aI0
aa(lp4787
I0
aI0
aI0
aa(lp4788
I2
aI0
aI0
aa(lp4789
I7
aI2
aI1
aa(lp4790
I1
aI0
aI0
aa(lp4791
I8
aI4
aI0
aa(lp4792
I7
aI1
aI0
aa(lp4793
I4
aI0
aI0
aa(lp4794
I1
aI0
aI0
aa(lp4795
I1
aI0
aI0
aa(lp4796
I1
aI0
aI0
aa(lp4797
I3
aI0
aI0
aa(lp4798
I14
aI4
aI0
aa(lp4799
I2
aI1
aI1
aa(lp4800
I4
aI1
aI0
aa(lp4801
I4
aI0
aI0
aa(lp4802
I10
aI5
aI1
aa(lp4803
I12
aI3
aI0
aa(lp4804
I7
aI0
aI0
aa(lp4805
I3
aI0
aI0
aa(lp4806
I18
aI8
aI0
aa(lp4807
I9
aI1
aI1
aa(lp4808
I6
aI0
aI0
aa(lp4809
I7
aI0
aI0
aa(lp4810
I9
aI3
aI0
aa(lp4811
I3
aI1
aI1
aa(lp4812
I24
aI2
aI0
aa(lp4813
I16
aI3
aI0
aa(lp4814
I0
aI0
aI0
aa(lp4815
I2
aI1
aI1
aa(lp4816
I0
aI0
aI0
aa(lp4817
I0
aI0
aI0
aa(lp4818
I11
aI2
aI0
aa(lp4819
I1
aI0
aI0
aa(lp4820
I11
aI6
aI1
aa(lp4821
I5
aI0
aI0
aa(lp4822
I5
aI2
aI0
aa(lp4823
I5
aI1
aI0
aa(lp4824
I4
aI0
aI0
aa(lp4825
I1
aI1
aI1
aa(lp4826
I3
aI1
aI0
aa(lp4827
I6
aI1
aI0
aa(lp4828
I12
aI2
aI0
aa(lp4829
I4
aI0
aI0
aa(lp4830
I3
aI0
aI0
aa(lp4831
I2
aI1
aI1
aa(lp4832
I9
aI1
aI1
aa(lp4833
I5
aI2
aI0
aa(lp4834
I10
aI6
aI1
aa(lp4835
I2
aI1
aI1
aa(lp4836
I0
aI0
aI0
aa(lp4837
I0
aI0
aI0
aa(lp4838
I0
aI0
aI0
aa(lp4839
I5
aI0
aI0
aa(lp4840
I0
aI0
aI0
aa(lp4841
I12
aI5
aI0
aa(lp4842
I22
aI1
aI0
aa(lp4843
I2
aI1
aI1
aa(lp4844
I1
aI0
aI0
aa(lp4845
I0
aI0
aI0
aa(lp4846
I0
aI0
aI0
aa(lp4847
I11
aI1
aI0
aa(lp4848
I12
aI0
aI0
aa(lp4849
I28
aI3
aI0
aa(lp4850
I14
aI0
aI0
aa(lp4851
I3
aI1
aI1
aa(lp4852
I1
aI0
aI0
aa(lp4853
I27
aI4
aI0
aa(lp4854
I12
aI1
aI0
aa(lp4855
I24
aI7
aI0
aa(lp4856
I3
aI2
aI1
aa(lp4857
I16
aI3
aI0
aa(lp4858
I11
aI4
aI0
aa(lp4859
I19
aI8
aI0
aa(lp4860
I7
aI0
aI0
aa(lp4861
I7
aI1
aI0
aa(lp4862
I2
aI2
aI1
aa(lp4863
I0
aI0
aI0
aa(lp4864
I6
aI0
aI0
aa(lp4865
I0
aI0
aI0
aa(lp4866
I2
aI0
aI0
aa(lp4867
I0
aI0
aI0
aa(lp4868
I9
aI3
aI1
aa(lp4869
I6
aI1
aI0
aa(lp4870
I1
aI0
aI0
aa(lp4871
I0
aI0
aI0
aa(lp4872
I2
aI1
aI1
aa(lp4873
I1
aI0
aI0
aa(lp4874
I5
aI0
aI0
aa(lp4875
I8
aI0
aI0
aa(lp4876
I2
aI0
aI0
aa(lp4877
I6
aI2
aI0
aa(lp4878
I3
aI0
aI0
aa(lp4879
I0
aI0
aI0
aa(lp4880
I0
aI0
aI0
aa(lp4881
I0
aI0
aI0
aa(lp4882
I0
aI0
aI0
aa(lp4883
I0
aI0
aI0
aa(lp4884
I0
aI0
aI0
aa(lp4885
I0
aI0
aI0
aa(lp4886
I0
aI0
aI0
aa(lp4887
I0
aI0
aI0
aa(lp4888
I6
aI1
aI0
aa(lp4889
I1
aI0
aI0
aa(lp4890
I8
aI0
aI0
aa(lp4891
I0
aI0
aI0
aa(lp4892
I1
aI0
aI0
aa(lp4893
I5
aI0
aI0
aa(lp4894
I8
aI2
aI0
aa(lp4895
I2
aI0
aI0
aa(lp4896
I25
aI7
aI0
aa(lp4897
I13
aI2
aI0
aa(lp4898
I15
aI0
aI0
aa(lp4899
I19
aI8
aI0
aa(lp4900
I20
aI8
aI0
aa(lp4901
I6
aI0
aI0
aa(lp4902
I19
aI4
aI1
aa(lp4903
I4
aI1
aI0
aa(lp4904
I8
aI0
aI0
aa(lp4905
I5
aI0
aI0
aa(lp4906
I1
aI0
aI0
aa(lp4907
I12
aI4
aI1
aa(lp4908
I5
aI0
aI0
aa(lp4909
I6
aI0
aI0
aa(lp4910
I4
aI2
aI0
aa(lp4911
I0
aI0
aI0
aa(lp4912
I1
aI1
aI1
aa(lp4913
I11
aI2
aI0
aa(lp4914
I12
aI8
aI1
aa(lp4915
I5
aI2
aI0
aa(lp4916
I1
aI0
aI0
aa(lp4917
I0
aI0
aI0
aa(lp4918
I11
aI1
aI0
aa(lp4919
I3
aI0
aI0
aa(lp4920
I0
aI0
aI0
aa(lp4921
I6
aI1
aI0
aa(lp4922
I0
aI0
aI0
aa(lp4923
I1
aI0
aI0
aa(lp4924
I23
aI1
aI0
aa(lp4925
I9
aI2
aI0
aa(lp4926
I3
aI1
aI0
aa(lp4927
I13
aI13
aI1
aa(lp4928
I12
aI1
aI0
aa(lp4929
I1
aI0
aI0
aa(lp4930
I3
aI1
aI0
aa(lp4931
I4
aI3
aI0
aa(lp4932
I7
aI1
aI1
aa(lp4933
I7
aI1
aI0
aa(lp4934
I12
aI1
aI0
aa(lp4935
I3
aI0
aI0
aa(lp4936
I9
aI1
aI0
aa(lp4937
I2
aI0
aI0
aa(lp4938
I17
aI6
aI1
aa(lp4939
I14
aI6
aI0
aa(lp4940
I12
aI1
aI0
aa(lp4941
I9
aI2
aI0
aa(lp4942
I0
aI0
aI0
aa(lp4943
I0
aI0
aI0
aa(lp4944
I8
aI2
aI0
aa(lp4945
I3
aI1
aI1
aa(lp4946
I0
aI0
aI0
aa(lp4947
I0
aI0
aI0
aa(lp4948
I11
aI6
aI0
aa(lp4949
I10
aI2
aI0
aa(lp4950
I8
aI0
aI0
aa(lp4951
I0
aI0
aI0
aa(lp4952
I0
aI0
aI0
aa(lp4953
I1
aI0
aI0
aa(lp4954
I0
aI0
aI0
aa(lp4955
I0
aI0
aI0
aa(lp4956
I0
aI0
aI0
aa(lp4957
I24
aI0
aI0
aa(lp4958
I10
aI1
aI0
aa(lp4959
I15
aI2
aI0
aa(lp4960
I0
aI0
aI0
aa(lp4961
I15
aI4
aI0
aa(lp4962
I0
aI0
aI0
aa(lp4963
I2
aI0
aI0
aa(lp4964
I0
aI0
aI0
aa(lp4965
I5
aI5
aI1
aa(lp4966
I17
aI4
aI1
aa(lp4967
I13
aI2
aI0
aa(lp4968
I13
aI2
aI0
aa(lp4969
I9
aI2
aI0
aa(lp4970
I14
aI3
aI1
aa(lp4971
I3
aI0
aI0
aa(lp4972
I12
aI0
aI0
aa(lp4973
I17
aI1
aI0
aa(lp4974
I14
aI0
aI0
aa(lp4975
I0
aI0
aI0
aa(lp4976
I1
aI0
aI0
aa(lp4977
I11
aI5
aI0
aa(lp4978
I12
aI0
aI0
aa(lp4979
I4
aI0
aI0
aa(lp4980
I2
aI0
aI0
aa(lp4981
I2
aI0
aI0
aa(lp4982
I0
aI0
aI0
aa(lp4983
I4
aI0
aI0
aa(lp4984
I0
aI0
aI0
aa(lp4985
I0
aI0
aI0
aa(lp4986
I0
aI0
aI0
aa(lp4987
I0
aI0
aI0
aa(lp4988
I0
aI0
aI0
aa(lp4989
I2
aI0
aI0
aa(lp4990
I8
aI1
aI0
aa(lp4991
I7
aI2
aI0
aa(lp4992
I2
aI2
aI1
aa(lp4993
I13
aI0
aI0
aa(lp4994
I5
aI1
aI1
aa(lp4995
I7
aI5
aI0
aa(lp4996
I11
aI5
aI0
aa(lp4997
I5
aI2
aI0
aa(lp4998
I1
aI1
aI1
aa(lp4999
I0
aI0
aI0
aa(lp5000
I1
aI1
aI1
aa(lp5001
I10
aI3
aI0
aa(lp5002
I0
aI0
aI0
aa(lp5003
I0
aI0
aI0
aa(lp5004
I2
aI0
aI0
aa(lp5005
I2
aI0
aI0
aa(lp5006
I15
aI6
aI0
aa(lp5007
I13
aI5
aI1
aa(lp5008
I3
aI1
aI0
aa(lp5009
I1
aI1
aI1
aa(lp5010
I20
aI3
aI0
aa(lp5011
I15
aI0
aI0
aa(lp5012
I15
aI7
aI1
aa(lp5013
I11
aI5
aI1
aa(lp5014
I13
aI5
aI0
aa(lp5015
I2
aI0
aI0
aa(lp5016
I7
aI2
aI0
aa(lp5017
I2
aI0
aI0
aa(lp5018
I6
aI6
aI1
aa(lp5019
I1
aI0
aI0
aa(lp5020
I2
aI1
aI0
aa(lp5021
I6
aI0
aI0
aa(lp5022
I1
aI0
aI0
aa(lp5023
I0
aI0
aI0
aa(lp5024
I4
aI0
aI0
aa(lp5025
I0
aI0
aI0
aa(lp5026
I2
aI0
aI0
aa(lp5027
I6
aI0
aI0
aa(lp5028
I2
aI0
aI0
aa(lp5029
I6
aI3
aI0
aa(lp5030
I7
aI1
aI0
aa(lp5031
I1
aI0
aI0
aa(lp5032
I0
aI0
aI0
aa(lp5033
I0
aI0
aI0
aa(lp5034
I0
aI0
aI0
aa(lp5035
I4
aI0
aI0
aa(lp5036
I7
aI2
aI0
aa(lp5037
I1
aI0
aI0
aa(lp5038
I1
aI0
aI0
aa(lp5039
I15
aI0
aI0
aa(lp5040
I15
aI0
aI0
aa(lp5041
I24
aI1
aI0
aa(lp5042
I15
aI0
aI0
aa(lp5043
I28
aI4
aI0
aa(lp5044
I3
aI0
aI0
aa(lp5045
I2
aI0
aI0
aa(lp5046
I1
aI0
aI0
aa(lp5047
I0
aI0
aI0
aa(lp5048
I0
aI0
aI0
aa(lp5049
I0
aI0
aI0
aa(lp5050
I3
aI1
aI0
aa(lp5051
I20
aI2
aI1
aa(lp5052
I15
aI8
aI1
aa(lp5053
I0
aI0
aI0
aa(lp5054
I10
aI4
aI1
aa(lp5055
I0
aI0
aI0
aa(lp5056
I0
aI0
aI0
aa(lp5057
I12
aI0
aI0
aa(lp5058
I3
aI1
aI0
aa(lp5059
I2
aI0
aI0
aa(lp5060
I13
aI1
aI0
aa(lp5061
I13
aI1
aI0
aa(lp5062
I3
aI0
aI0
aa(lp5063
I6
aI0
aI0
aa(lp5064
I6
aI2
aI1
aa(lp5065
I16
aI7
aI0
aa(lp5066
I7
aI0
aI0
aa(lp5067
I1
aI0
aI0
aa(lp5068
I2
aI0
aI0
aa(lp5069
I1
aI0
aI0
aa(lp5070
I2
aI0
aI0
aa(lp5071
I9
aI6
aI1
aa(lp5072
I2
aI1
aI0
aa(lp5073
I6
aI3
aI1
aa(lp5074
I1
aI0
aI0
aa(lp5075
I25
aI1
aI0
aa(lp5076
I16
aI0
aI0
aa(lp5077
I5
aI2
aI0
aa(lp5078
I2
aI0
aI0
aa(lp5079
I20
aI9
aI1
aa(lp5080
I29
aI4
aI0
aa(lp5081
I30
aI4
aI0
aa(lp5082
I15
aI0
aI0
aa(lp5083
I12
aI6
aI0
aa(lp5084
I14
aI5
aI0
aa(lp5085
I13
aI0
aI0
aa(lp5086
I2
aI1
aI1
aa(lp5087
I9
aI4
aI0
aa(lp5088
I10
aI7
aI1
aa(lp5089
I21
aI9
aI0
aa(lp5090
I8
aI5
aI0
aa(lp5091
I10
aI5
aI1
aa(lp5092
I4
aI0
aI0
aa(lp5093
I8
aI5
aI1
aa(lp5094
I5
aI3
aI0
aa(lp5095
I11
aI3
aI0
aa(lp5096
I11
aI3
aI0
aa(lp5097
I3
aI2
aI1
aa(lp5098
I0
aI0
aI0
aa(lp5099
I25
aI0
aI0
aa(lp5100
I6
aI0
aI0
aa(lp5101
I11
aI1
aI0
aa(lp5102
I7
aI6
aI1
aa(lp5103
I2
aI0
aI0
aa(lp5104
I6
aI4
aI1
aa(lp5105
I1
aI1
aI1
aa(lp5106
I14
aI6
aI1
aa(lp5107
I2
aI1
aI1
aa(lp5108
I1
aI0
aI0
aa(lp5109
I3
aI2
aI1
aa(lp5110
I2
aI0
aI0
aa(lp5111
I3
aI2
aI0
aa(lp5112
I24
aI2
aI0
aa(lp5113
I1
aI0
aI0
aa(lp5114
I17
aI7
aI0
aa(lp5115
I13
aI0
aI0
aa(lp5116
I12
aI2
aI0
aa(lp5117
I2
aI0
aI0
aa(lp5118
I10
aI1
aI0
aa(lp5119
I1
aI0
aI0
aa(lp5120
I18
aI1
aI0
aa(lp5121
I7
aI3
aI0
aa(lp5122
I5
aI1
aI1
aa(lp5123
I26
aI0
aI0
aa(lp5124
I11
aI5
aI0
aa(lp5125
I3
aI1
aI0
aa(lp5126
I5
aI1
aI0
aa(lp5127
I2
aI0
aI0
aa(lp5128
I29
aI3
aI0
aa(lp5129
I2
aI1
aI1
aa(lp5130
I6
aI2
aI0
aa(lp5131
I17
aI3
aI1
aa(lp5132
I3
aI0
aI0
aa(lp5133
I25
aI2
aI0
aa(lp5134
I4
aI0
aI0
aa(lp5135
I5
aI1
aI0
aa(lp5136
I7
aI0
aI0
aa(lp5137
I30
aI3
aI0
aa(lp5138
I5
aI2
aI0
aa(lp5139
I3
aI2
aI1
aa(lp5140
I1
aI0
aI0
aa(lp5141
I0
aI0
aI0
aa(lp5142
I0
aI0
aI0
aa(lp5143
I17
aI4
aI1
aa(lp5144
I3
aI1
aI0
aa(lp5145
I11
aI1
aI0
aa(lp5146
I18
aI4
aI0
aa(lp5147
I11
aI1
aI0
aa(lp5148
I2
aI0
aI0
aa(lp5149
I1
aI0
aI0
aa(lp5150
I6
aI0
aI0
aa(lp5151
I5
aI1
aI0
aa(lp5152
I8
aI0
aI0
aa(lp5153
I4
aI0
aI0
aa(lp5154
I7
aI4
aI1
aa(lp5155
I12
aI6
aI1
aa(lp5156
I8
aI0
aI0
aa(lp5157
I5
aI0
aI0
aa(lp5158
I14
aI2
aI0
aa(lp5159
I10
aI1
aI0
aa(lp5160
I5
aI1
aI0
aa(lp5161
I4
aI1
aI0
aa(lp5162
I8
aI1
aI0
aa(lp5163
I1
aI1
aI1
aa(lp5164
I4
aI1
aI0
aa(lp5165
I2
aI0
aI0
aa(lp5166
I6
aI0
aI0
aa(lp5167
I16
aI0
aI0
aa(lp5168
I2
aI0
aI0
aa(lp5169
I0
aI0
aI0
aa(lp5170
I6
aI2
aI0
aa(lp5171
I1
aI0
aI0
aa(lp5172
I8
aI3
aI1
aa(lp5173
I5
aI1
aI0
aa(lp5174
I11
aI4
aI0
aa(lp5175
I7
aI0
aI0
aa(lp5176
I0
aI0
aI0
aa(lp5177
I10
aI4
aI1
aa(lp5178
I4
aI0
aI0
aa(lp5179
I7
aI0
aI0
aa(lp5180
I2
aI0
aI0
aa(lp5181
I2
aI0
aI0
aa(lp5182
I0
aI0
aI0
aa(lp5183
I0
aI0
aI0
aa(lp5184
I2
aI0
aI0
aa(lp5185
I1
aI0
aI0
aa(lp5186
I2
aI0
aI0
aa(lp5187
I16
aI3
aI1
aa(lp5188
I6
aI1
aI0
aa(lp5189
I13
aI0
aI0
aa(lp5190
I26
aI2
aI0
aa(lp5191
I15
aI2
aI0
aa(lp5192
I4
aI3
aI1
aa(lp5193
I4
aI0
aI0
aa(lp5194
I0
aI0
aI0
aa(lp5195
I0
aI0
aI0
aa(lp5196
I14
aI0
aI0
aa(lp5197
I7
aI0
aI0
aa(lp5198
I6
aI1
aI0
aa(lp5199
I0
aI0
aI0
aa(lp5200
I0
aI0
aI0
aa(lp5201
I12
aI7
aI1
aa(lp5202
I10
aI3
aI1
aa(lp5203
I8
aI0
aI0
aa(lp5204
I6
aI3
aI1
aa(lp5205
I3
aI2
aI1
aa(lp5206
I26
aI1
aI0
aa(lp5207
I15
aI6
aI0
aa(lp5208
I1
aI0
aI0
aa(lp5209
I17
aI8
aI0
aa(lp5210
I14
aI0
aI0
aa(lp5211
I22
aI9
aI0
aa(lp5212
I8
aI5
aI1
aa(lp5213
I16
aI4
aI0
aa(lp5214
I2
aI1
aI0
aa(lp5215
I1
aI0
aI0
aa(lp5216
I9
aI6
aI1
aa(lp5217
I1
aI1
aI1
aa(lp5218
I7
aI4
aI1
aa(lp5219
I13
aI2
aI0
aa(lp5220
I4
aI2
aI1
aa(lp5221
I5
aI0
aI0
aa(lp5222
I5
aI0
aI0
aa(lp5223
I6
aI0
aI0
aa(lp5224
I3
aI0
aI0
aa(lp5225
I14
aI2
aI0
aa(lp5226
I5
aI4
aI0
aa(lp5227
I2
aI0
aI0
aa(lp5228
I8
aI4
aI1
aa(lp5229
I11
aI2
aI0
aa(lp5230
I20
aI4
aI0
aa(lp5231
I16
aI1
aI0
aa(lp5232
I17
aI0
aI0
aa(lp5233
I3
aI0
aI0
aa(lp5234
I1
aI0
aI0
aa(lp5235
I9
aI3
aI1
aa(lp5236
I15
aI3
aI0
aa(lp5237
I16
aI0
aI0
aa(lp5238
I2
aI1
aI1
aa(lp5239
I27
aI3
aI0
aa(lp5240
I9
aI0
aI0
aa(lp5241
I13
aI1
aI0
aa(lp5242
I16
aI6
aI0
aa(lp5243
I15
aI4
aI0
aa(lp5244
I31
aI4
aI0
aa(lp5245
I2
aI0
aI0
aa(lp5246
I3
aI0
aI0
aa(lp5247
I21
aI3
aI1
aa(lp5248
I4
aI3
aI1
aa(lp5249
I13
aI9
aI1
aa(lp5250
I6
aI1
aI0
aa(lp5251
I18
aI0
aI0
aa(lp5252
I1
aI0
aI0
aa(lp5253
I26
aI7
aI0
aa(lp5254
I21
aI9
aI1
aa(lp5255
I19
aI0
aI0
aa(lp5256
I2
aI1
aI1
aa(lp5257
I12
aI3
aI1
aa(lp5258
I0
aI0
aI0
aa(lp5259
I16
aI4
aI1
aa(lp5260
I0
aI0
aI0
aa(lp5261
I14
aI14
aI1
aa(lp5262
I5
aI0
aI0
aa(lp5263
I4
aI0
aI0
aa(lp5264
I1
aI0
aI0
aa(lp5265
I0
aI0
aI0
aa(lp5266
I12
aI5
aI0
aa(lp5267
I11
aI5
aI1
aa(lp5268
I23
aI9
aI0
aa(lp5269
I9
aI5
aI0
aa(lp5270
I17
aI4
aI0
aa(lp5271
I4
aI1
aI0
aa(lp5272
I5
aI2
aI1
aa(lp5273
I0
aI0
aI0
aa(lp5274
I8
aI1
aI1
aa(lp5275
I12
aI4
aI0
aa(lp5276
I10
aI3
aI0
aa(lp5277
I9
aI0
aI0
aa(lp5278
I2
aI0
aI0
aa(lp5279
I1
aI0
aI0
aa(lp5280
I9
aI0
aI0
aa(lp5281
I0
aI0
aI0
aa(lp5282
I1
aI0
aI0
aa(lp5283
I5
aI0
aI0
aa(lp5284
I27
aI1
aI0
aa(lp5285
I27
aI7
aI0
aa(lp5286
I22
aI10
aI1
aa(lp5287
I2
aI2
aI1
aa(lp5288
I8
aI6
aI1
aa(lp5289
I16
aI5
aI1
aa(lp5290
I7
aI4
aI1
aa(lp5291
I10
aI0
aI0
aa(lp5292
I10
aI2
aI0
aa(lp5293
I7
aI0
aI0
aa(lp5294
I5
aI3
aI1
aa(lp5295
I0
aI0
aI0
aa(lp5296
I27
aI0
aI0
aa(lp5297
I3
aI0
aI0
aa(lp5298
I11
aI3
aI0
aa(lp5299
I0
aI0
aI0
aa(lp5300
I0
aI0
aI0
aa(lp5301
I0
aI0
aI0
aa(lp5302
I5
aI0
aI0
aa(lp5303
I31
aI3
aI0
aa(lp5304
I10
aI0
aI0
aa(lp5305
I11
aI0
aI0
aa(lp5306
I2
aI0
aI0
aa(lp5307
I8
aI5
aI1
aa(lp5308
I1
aI0
aI0
aa(lp5309
I1
aI0
aI0
aa(lp5310
I2
aI0
aI0
aa(lp5311
I11
aI3
aI1
aa(lp5312
I18
aI3
aI0
aa(lp5313
I1
aI0
aI0
aa(lp5314
I7
aI1
aI0
aa(lp5315
I8
aI0
aI0
aa(lp5316
I9
aI0
aI0
aa(lp5317
I1
aI0
aI0
aa(lp5318
I0
aI0
aI0
aa(lp5319
I3
aI2
aI1
aa(lp5320
I5
aI4
aI1
aa(lp5321
I18
aI4
aI0
aa(lp5322
I12
aI2
aI0
aa(lp5323
I5
aI2
aI1
aa(lp5324
I20
aI0
aI0
aa(lp5325
I0
aI0
aI0
aa(lp5326
I0
aI0
aI0
aa(lp5327
I1
aI0
aI0
aa(lp5328
I0
aI0
aI0
aa(lp5329
I5
aI3
aI1
aa(lp5330
I16
aI0
aI0
aa(lp5331
I15
aI5
aI0
aa(lp5332
I11
aI7
aI1
aa(lp5333
I9
aI6
aI1
aa(lp5334
I5
aI0
aI0
aa(lp5335
I12
aI0
aI0
aa(lp5336
I18
aI9
aI1
aa(lp5337
I22
aI4
aI1
aa(lp5338
I13
aI1
aI0
aa(lp5339
I2
aI1
aI1
aa(lp5340
I8
aI8
aI1
aa(lp5341
I3
aI0
aI0
aa(lp5342
I6
aI4
aI0
aa(lp5343
I10
aI7
aI1
aa(lp5344
I13
aI7
aI1
aa(lp5345
I7
aI0
aI0
aa(lp5346
I2
aI0
aI0
aa(lp5347
I14
aI0
aI0
aa(lp5348
I5
aI1
aI1
aa(lp5349
I6
aI0
aI0
aa(lp5350
I9
aI1
aI0
aa(lp5351
I3
aI0
aI0
aa(lp5352
I2
aI0
aI0
aa(lp5353
I10
aI0
aI0
aa(lp5354
I5
aI4
aI0
aa(lp5355
I1
aI0
aI0
aa(lp5356
I0
aI0
aI0
aa(lp5357
I4
aI1
aI0
aa(lp5358
I6
aI0
aI0
aa(lp5359
I4
aI0
aI0
aa(lp5360
I19
aI1
aI0
aa(lp5361
I0
aI0
aI0
aa(lp5362
I9
aI5
aI0
aa(lp5363
I8
aI2
aI0
aa(lp5364
I1
aI1
aI1
aa(lp5365
I14
aI0
aI0
aa(lp5366
I9
aI1
aI0
aa(lp5367
I14
aI1
aI0
aa(lp5368
I8
aI2
aI0
aa(lp5369
I7
aI4
aI1
aa(lp5370
I1
aI0
aI0
aa(lp5371
I7
aI2
aI0
aa(lp5372
I6
aI1
aI0
aa(lp5373
I4
aI0
aI0
aa(lp5374
I15
aI1
aI0
aa(lp5375
I4
aI0
aI0
aa(lp5376
I9
aI2
aI1
aa(lp5377
I4
aI0
aI0
aa(lp5378
I8
aI1
aI1
aa(lp5379
I5
aI0
aI0
aa(lp5380
I16
aI0
aI0
aa(lp5381
I2
aI0
aI0
aa(lp5382
I0
aI0
aI0
aa(lp5383
I7
aI0
aI0
aa(lp5384
I2
aI1
aI0
aa(lp5385
I17
aI5
aI0
aa(lp5386
I7
aI0
aI0
aa(lp5387
I5
aI0
aI0
aa(lp5388
I0
aI0
aI0
aa(lp5389
I3
aI0
aI0
aa(lp5390
I17
aI6
aI0
aa(lp5391
I28
aI0
aI0
aa(lp5392
I21
aI3
aI0
aa(lp5393
I6
aI5
aI1
aa(lp5394
I24
aI9
aI0
aa(lp5395
I10
aI5
aI0
aa(lp5396
I16
aI6
aI1
aa(lp5397
I21
aI0
aI0
aa(lp5398
I28
aI7
aI0
aa(lp5399
I3
aI2
aI1
aa(lp5400
I2
aI0
aI0
aa(lp5401
I0
aI0
aI0
aa(lp5402
I6
aI0
aI0
aa(lp5403
I8
aI0
aI0
aa(lp5404
I4
aI1
aI0
aa(lp5405
I25
aI2
aI0
aa(lp5406
I4
aI0
aI0
aa(lp5407
I15
aI0
aI0
aa(lp5408
I3
aI0
aI0
aa(lp5409
I17
aI6
aI0
aa(lp5410
I5
aI1
aI0
aa(lp5411
I11
aI1
aI0
aa(lp5412
I8
aI1
aI0
aa(lp5413
I2
aI1
aI1
aa(lp5414
I12
aI6
aI1
aa(lp5415
I13
aI3
aI1
aa(lp5416
I7
aI1
aI0
aa(lp5417
I19
aI9
aI0
aa(lp5418
I17
aI0
aI0
aa(lp5419
I25
aI9
aI0
aa(lp5420
I11
aI5
aI0
aa(lp5421
I4
aI2
aI0
aa(lp5422
I2
aI0
aI0
aa(lp5423
I15
aI0
aI0
aa(lp5424
I7
aI0
aI0
aa(lp5425
I12
aI2
aI0
aa(lp5426
I0
aI0
aI0
aa(lp5427
I13
aI6
aI1
aa(lp5428
I9
aI0
aI0
aa(lp5429
I0
aI0
aI0
aa(lp5430
I6
aI0
aI0
aa(lp5431
I13
aI4
aI0
aa(lp5432
I0
aI0
aI0
aa(lp5433
I3
aI0
aI0
aa(lp5434
I1
aI1
aI1
aa(lp5435
I0
aI0
aI0
aa(lp5436
I6
aI1
aI0
aa(lp5437
I0
aI0
aI0
aa(lp5438
I2
aI0
aI0
aa(lp5439
I2
aI0
aI0
aa(lp5440
I0
aI0
aI0
aa(lp5441
I0
aI0
aI0
aa(lp5442
I9
aI1
aI0
aa(lp5443
I3
aI0
aI0
aa(lp5444
I9
aI1
aI0
aa(lp5445
I15
aI0
aI0
aa(lp5446
I4
aI0
aI0
aa(lp5447
I3
aI3
aI1
aa(lp5448
I5
aI2
aI0
aa(lp5449
I0
aI0
aI0
aa(lp5450
I0
aI0
aI0
aa(lp5451
I5
aI0
aI0
aa(lp5452
I5
aI0
aI0
aa(lp5453
I8
aI0
aI0
aa(lp5454
I0
aI0
aI0
aa(lp5455
I11
aI3
aI0
aa(lp5456
I10
aI5
aI0
aa(lp5457
I5
aI0
aI0
aa(lp5458
I2
aI0
aI0
aa(lp5459
I13
aI6
aI0
aa(lp5460
I2
aI0
aI0
aa(lp5461
I17
aI0
aI0
aa(lp5462
I1
aI0
aI0
aa(lp5463
I3
aI0
aI0
aa(lp5464
I2
aI0
aI0
aa(lp5465
I14
aI1
aI0
aa(lp5466
I3
aI0
aI0
aa(lp5467
I19
aI5
aI1
aa(lp5468
I4
aI2
aI1
aa(lp5469
I2
aI1
aI0
aa(lp5470
I5
aI1
aI0
aa(lp5471
I16
aI0
aI0
aa(lp5472
I4
aI0
aI0
aa(lp5473
I4
aI0
aI0
aa(lp5474
I2
aI2
aI1
aa(lp5475
I7
aI2
aI0
aa(lp5476
I11
aI3
aI0
aa(lp5477
I9
aI4
aI0
aa(lp5478
I5
aI2
aI0
aa(lp5479
I1
aI0
aI0
aa(lp5480
I3
aI0
aI0
aa(lp5481
I8
aI0
aI0
aa(lp5482
I0
aI0
aI0
aa(lp5483
I14
aI10
aI1
aa(lp5484
I7
aI1
aI0
aa(lp5485
I1
aI0
aI0
aa(lp5486
I6
aI2
aI1
aa(lp5487
I6
aI4
aI1
aa(lp5488
I1
aI1
aI1
aa(lp5489
I10
aI1
aI0
aa(lp5490
I0
aI0
aI0
aa(lp5491
I4
aI0
aI0
aa(lp5492
I1
aI0
aI0
aa(lp5493
I0
aI0
aI0
aa(lp5494
I2
aI1
aI0
aa(lp5495
I0
aI0
aI0
aa(lp5496
I13
aI3
aI1
aa(lp5497
I0
aI0
aI0
aa(lp5498
I1
aI0
aI0
aa(lp5499
I11
aI0
aI0
aa(lp5500
I12
aI1
aI0
aa(lp5501
I18
aI6
aI0
aa(lp5502
I20
aI9
aI0
aa(lp5503
I7
aI2
aI0
aa(lp5504
I14
aI2
aI0
aa(lp5505
I10
aI2
aI0
aa(lp5506
I10
aI0
aI0
aa(lp5507
I2
aI1
aI1
aa(lp5508
I0
aI0
aI0
aa(lp5509
I0
aI0
aI0
aa(lp5510
I28
aI1
aI0
aa(lp5511
I12
aI1
aI0
aa(lp5512
I18
aI4
aI0
aa(lp5513
I10
aI1
aI1
aa(lp5514
I29
aI0
aI0
aa(lp5515
I18
aI7
aI0
aa(lp5516
I2
aI0
aI0
aa(lp5517
I4
aI0
aI0
aa(lp5518
I22
aI3
aI0
aa(lp5519
I12
aI1
aI0
aa(lp5520
I19
aI4
aI0
aa(lp5521
I19
aI7
aI0
aa(lp5522
I2
aI0
aI0
aa(lp5523
I17
aI4
aI0
aa(lp5524
I12
aI0
aI0
aa(lp5525
I11
aI0
aI0
aa(lp5526
I5
aI0
aI0
aa(lp5527
I19
aI3
aI0
aa(lp5528
I14
aI8
aI1
aa(lp5529
I4
aI0
aI0
aa(lp5530
I9
aI2
aI0
aa(lp5531
I9
aI0
aI0
aa(lp5532
I0
aI0
aI0
aa(lp5533
I6
aI0
aI0
aa(lp5534
I7
aI1
aI0
aa(lp5535
I23
aI5
aI1
aa(lp5536
I12
aI5
aI0
aa(lp5537
I6
aI4
aI0
aa(lp5538
I13
aI1
aI0
aa(lp5539
I11
aI0
aI0
aa(lp5540
I5
aI0
aI0
aa(lp5541
I3
aI1
aI1
aa(lp5542
I2
aI0
aI0
aa(lp5543
I26
aI9
aI0
aa(lp5544
I1
aI0
aI0
aa(lp5545
I1
aI0
aI0
aa(lp5546
I7
aI5
aI1
aa(lp5547
I3
aI2
aI1
aa(lp5548
I10
aI1
aI1
aa(lp5549
I12
aI4
aI0
aa(lp5550
I6
aI4
aI1
aa(lp5551
I3
aI0
aI0
aa(lp5552
I7
aI6
aI1
aa(lp5553
I18
aI7
aI1
aa(lp5554
I3
aI1
aI0
aa(lp5555
I2
aI0
aI0
aa(lp5556
I5
aI0
aI0
aa(lp5557
I3
aI0
aI0
aa(lp5558
I15
aI0
aI0
aa(lp5559
I16
aI8
aI0
aa(lp5560
I14
aI7
aI1
aa(lp5561
I2
aI0
aI0
aa(lp5562
I13
aI1
aI0
aa(lp5563
I4
aI0
aI0
aa(lp5564
I12
aI0
aI0
aa(lp5565
I11
aI1
aI0
aa(lp5566
I4
aI0
aI0
aa(lp5567
I7
aI1
aI0
aa(lp5568
I8
aI0
aI0
aa(lp5569
I6
aI3
aI0
aa(lp5570
I1
aI0
aI0
aa(lp5571
I9
aI0
aI0
aa(lp5572
I8
aI1
aI0
aa(lp5573
I9
aI0
aI0
aa(lp5574
I0
aI0
aI0
aa(lp5575
I3
aI0
aI0
aa(lp5576
I0
aI0
aI0
aa(lp5577
I5
aI0
aI0
aa(lp5578
I0
aI0
aI0
aa(lp5579
I9
aI9
aI1
aa(lp5580
I6
aI0
aI0
aa(lp5581
I3
aI2
aI1
aa(lp5582
I12
aI8
aI1
aa(lp5583
I11
aI3
aI0
aa(lp5584
I8
aI5
aI0
aa(lp5585
I2
aI0
aI0
aa(lp5586
I13
aI1
aI0
aa(lp5587
I13
aI5
aI1
aa(lp5588
I1
aI0
aI0
aa(lp5589
I18
aI4
aI0
aa(lp5590
I0
aI0
aI0
aa(lp5591
I7
aI1
aI0
aa(lp5592
I0
aI0
aI0
aa(lp5593
I5
aI0
aI0
aa(lp5594
I8
aI0
aI0
aa(lp5595
I0
aI0
aI0
aa(lp5596
I0
aI0
aI0
aa(lp5597
I0
aI0
aI0
aa(lp5598
I0
aI0
aI0
aa(lp5599
I0
aI0
aI0
aa(lp5600
I0
aI0
aI0
aa(lp5601
I28
aI3
aI0
aa(lp5602
I21
aI9
aI0
aa(lp5603
I11
aI1
aI0
aa(lp5604
I9
aI0
aI0
aa(lp5605
I19
aI4
aI0
aa(lp5606
I12
aI5
aI0
aa(lp5607
I11
aI3
aI1
aa(lp5608
I9
aI0
aI0
aa(lp5609
I6
aI1
aI0
aa(lp5610
I4
aI1
aI1
aa(lp5611
I3
aI0
aI0
aa(lp5612
I5
aI0
aI0
aa(lp5613
I5
aI0
aI0
aa(lp5614
I7
aI0
aI0
aa(lp5615
I7
aI1
aI0
aa(lp5616
I4
aI2
aI0
aa(lp5617
I9
aI5
aI0
aa(lp5618
I9
aI1
aI1
aa(lp5619
I13
aI4
aI0
aa(lp5620
I8
aI0
aI0
aa(lp5621
I29
aI7
aI0
aa(lp5622
I17
aI0
aI0
aa(lp5623
I2
aI0
aI0
aa(lp5624
I0
aI0
aI0
aa(lp5625
I10
aI1
aI1
aa(lp5626
I13
aI3
aI0
aa(lp5627
I12
aI3
aI0
aa(lp5628
I7
aI0
aI0
aa(lp5629
I3
aI0
aI0
aa(lp5630
I0
aI0
aI0
aa(lp5631
I13
aI5
aI0
aa(lp5632
I20
aI5
aI1
aa(lp5633
I11
aI8
aI1
aa(lp5634
I12
aI0
aI0
aa(lp5635
I4
aI0
aI0
aa(lp5636
I11
aI3
aI0
aa(lp5637
I2
aI0
aI0
aa(lp5638
I15
aI8
aI1
aa(lp5639
I0
aI0
aI0
aa(lp5640
I0
aI0
aI0
aa(lp5641
I8
aI5
aI1
aa(lp5642
I30
aI0
aI0
aa(lp5643
I4
aI0
aI0
aa(lp5644
I7
aI4
aI0
aa(lp5645
I21
aI4
aI0
aa(lp5646
I14
aI6
aI0
aa(lp5647
I13
aI0
aI0
aa(lp5648
I12
aI3
aI0
aa(lp5649
I5
aI1
aI0
aa(lp5650
I4
aI3
aI1
aa(lp5651
I5
aI0
aI0
aa(lp5652
I0
aI0
aI0
aa(lp5653
I2
aI1
aI0
aa(lp5654
I6
aI0
aI0
aa(lp5655
I1
aI0
aI0
aa(lp5656
I17
aI0
aI0
aa(lp5657
I11
aI1
aI0
aa(lp5658
I3
aI0
aI0
aa(lp5659
I1
aI0
aI0
aa(lp5660
I10
aI1
aI1
aa(lp5661
I4
aI0
aI0
aa(lp5662
I0
aI0
aI0
aa(lp5663
I5
aI1
aI0
aa(lp5664
I1
aI0
aI0
aa(lp5665
I2
aI0
aI0
aa(lp5666
I9
aI0
aI0
aa(lp5667
I6
aI2
aI0
aa(lp5668
I2
aI1
aI0
aa(lp5669
I0
aI0
aI0
aa(lp5670
I9
aI0
aI0
aa(lp5671
I7
aI0
aI0
aa(lp5672
I6
aI1
aI0
aa(lp5673
I2
aI0
aI0
aa(lp5674
I1
aI0
aI0
aa(lp5675
I0
aI0
aI0
aa(lp5676
I12
aI1
aI0
aa(lp5677
I8
aI1
aI0
aa(lp5678
I9
aI2
aI0
aa(lp5679
I12
aI3
aI0
aa(lp5680
I0
aI0
aI0
aa(lp5681
I22
aI0
aI0
aa(lp5682
I27
aI9
aI0
aa(lp5683
I27
aI2
aI0
aa(lp5684
I9
aI0
aI0
aa(lp5685
I10
aI0
aI0
aa(lp5686
I6
aI0
aI0
aa(lp5687
I23
aI10
aI0
aa(lp5688
I32
aI3
aI0
aa(lp5689
I0
aI0
aI0
aa(lp5690
I0
aI0
aI0
aa(lp5691
I3
aI0
aI0
aa(lp5692
I5
aI1
aI1
aa(lp5693
I9
aI4
aI0
aa(lp5694
I4
aI1
aI0
aa(lp5695
I1
aI0
aI0
aa(lp5696
I0
aI0
aI0
aa(lp5697
I2
aI1
aI0
aa(lp5698
I0
aI0
aI0
aa(lp5699
I0
aI0
aI0
aa(lp5700
I8
aI2
aI0
aa(lp5701
I10
aI3
aI0
aa(lp5702
I15
aI11
aI1
aa(lp5703
I6
aI0
aI0
aa(lp5704
I5
aI0
aI0
aa(lp5705
I17
aI2
aI0
aa(lp5706
I2
aI0
aI0
aa(lp5707
I10
aI2
aI0
aa(lp5708
I8
aI2
aI0
aa(lp5709
I16
aI2
aI0
aa(lp5710
I19
aI4
aI0
aa(lp5711
I12
aI3
aI0
aa(lp5712
I15
aI3
aI1
aa(lp5713
I0
aI0
aI0
aa(lp5714
I0
aI0
aI0
aa(lp5715
I2
aI0
aI0
aa(lp5716
I3
aI1
aI1
aa(lp5717
I0
aI0
aI0
aa(lp5718
I0
aI0
aI0
aa(lp5719
I10
aI5
aI1
aa(lp5720
I1
aI0
aI0
aa(lp5721
I1
aI0
aI0
aa(lp5722
I2
aI1
aI1
aa(lp5723
I4
aI0
aI0
aa(lp5724
I6
aI1
aI1
aa(lp5725
I4
aI3
aI1
aa(lp5726
I2
aI0
aI0
aa(lp5727
I6
aI2
aI0
aa(lp5728
I6
aI1
aI0
aa(lp5729
I0
aI0
aI0
aa(lp5730
I14
aI6
aI1
aa(lp5731
I9
aI3
aI0
aa(lp5732
I6
aI0
aI0
aa(lp5733
I11
aI4
aI0
aa(lp5734
I18
aI0
aI0
aa(lp5735
I18
aI0
aI0
aa(lp5736
I31
aI0
aI0
aa(lp5737
I23
aI0
aI0
aa(lp5738
I16
aI7
aI1
aa(lp5739
I19
aI7
aI0
aa(lp5740
I6
aI1
aI0
aa(lp5741
I14
aI0
aI0
aa(lp5742
I13
aI8
aI1
aa(lp5743
I4
aI2
aI1
aa(lp5744
I8
aI0
aI0
aa(lp5745
I1
aI0
aI0
aa(lp5746
I6
aI0
aI0
aa(lp5747
I13
aI1
aI1
aa(lp5748
I0
aI0
aI0
aa(lp5749
I0
aI0
aI0
aa(lp5750
I8
aI0
aI0
aa(lp5751
I22
aI9
aI0
aa(lp5752
I10
aI1
aI0
aa(lp5753
I12
aI3
aI0
aa(lp5754
I8
aI1
aI0
aa(lp5755
I11
aI6
aI1
aa(lp5756
I12
aI4
aI1
aa(lp5757
I3
aI1
aI0
aa(lp5758
I0
aI0
aI0
aa(lp5759
I8
aI0
aI0
aa(lp5760
I13
aI9
aI1
aa(lp5761
I1
aI0
aI0
aa(lp5762
I0
aI0
aI0
aa(lp5763
I7
aI2
aI0
aa(lp5764
I16
aI0
aI0
aa(lp5765
I9
aI1
aI0
aa(lp5766
I8
aI1
aI0
aa(lp5767
I0
aI0
aI0
aa(lp5768
I0
aI0
aI0
aa(lp5769
I2
aI0
aI0
aa(lp5770
I9
aI1
aI0
aa(lp5771
I6
aI0
aI0
aa(lp5772
I7
aI3
aI1
aa(lp5773
I3
aI0
aI0
aa(lp5774
I0
aI0
aI0
aa(lp5775
I1
aI1
aI1
aa(lp5776
I12
aI9
aI1
aa(lp5777
I0
aI0
aI0
aa(lp5778
I3
aI0
aI0
aa(lp5779
I0
aI0
aI0
aa(lp5780
I4
aI1
aI0
aa(lp5781
I7
aI0
aI0
aa(lp5782
I7
aI2
aI1
aa(lp5783
I0
aI0
aI0
aa(lp5784
I8
aI1
aI0
aa(lp5785
I6
aI1
aI1
aa(lp5786
I6
aI2
aI0
aa(lp5787
I9
aI0
aI0
aa(lp5788
I6
aI0
aI0
aa(lp5789
I3
aI0
aI0
aa(lp5790
I7
aI0
aI0
aa(lp5791
I24
aI10
aI0
aa(lp5792
I13
aI7
aI1
aa(lp5793
I20
aI8
aI1
aa(lp5794
I4
aI1
aI1
aa(lp5795
I25
aI11
aI1
aa(lp5796
I13
aI1
aI0
aa(lp5797
I3
aI1
aI0
aa(lp5798
I1
aI0
aI0
aa(lp5799
I33
aI4
aI1
aa(lp5800
I14
aI1
aI0
aa(lp5801
I4
aI2
aI0
aa(lp5802
I1
aI0
aI0
aa(lp5803
I21
aI5
aI0
aa(lp5804
I20
aI7
aI0
aa(lp5805
I9
aI7
aI1
aa(lp5806
I13
aI3
aI0
aa(lp5807
I15
aI1
aI0
aa(lp5808
I2
aI0
aI0
aa(lp5809
I3
aI3
aI1
aa(lp5810
I11
aI1
aI0
aa(lp5811
I10
aI4
aI0
aa(lp5812
I0
aI0
aI0
aa(lp5813
I14
aI4
aI1
aa(lp5814
I10
aI5
aI0
aa(lp5815
I14
aI3
aI0
aa(lp5816
I0
aI0
aI0
aa(lp5817
I1
aI1
aI1
aa(lp5818
I3
aI0
aI0
aa(lp5819
I15
aI7
aI1
aa(lp5820
I16
aI0
aI0
aa(lp5821
I3
aI0
aI0
aa(lp5822
I6
aI0
aI0
aa(lp5823
I8
aI2
aI0
aa(lp5824
I26
aI2
aI0
aa(lp5825
I9
aI0
aI0
aa(lp5826
I15
aI0
aI0
aa(lp5827
I18
aI5
aI0
aa(lp5828
I2
aI0
aI0
aa(lp5829
I8
aI2
aI0
aa(lp5830
I3
aI0
aI0
aa(lp5831
I16
aI1
aI0
aa(lp5832
I9
aI0
aI0
aa(lp5833
I23
aI10
aI1
aa(lp5834
I17
aI2
aI0
aa(lp5835
I3
aI0
aI0
aa(lp5836
I4
aI0
aI0
aa(lp5837
I16
aI1
aI0
aa(lp5838
I4
aI4
aI1
aa(lp5839
I0
aI0
aI0
aa(lp5840
I11
aI4
aI0
aa(lp5841
I16
aI8
aI1
aa(lp5842
I19
aI5
aI0
aa(lp5843
I7
aI0
aI0
aa(lp5844
I0
aI0
aI0
aa(lp5845
I0
aI0
aI0
aa(lp5846
I6
aI0
aI0
aa(lp5847
I1
aI0
aI0
aa(lp5848
I1
aI0
aI0
aa(lp5849
I2
aI0
aI0
aa(lp5850
I0
aI0
aI0
aa(lp5851
I18
aI0
aI0
aa(lp5852
I13
aI1
aI0
aa(lp5853
I3
aI0
aI0
aa(lp5854
I8
aI2
aI0
aa(lp5855
I0
aI0
aI0
aa(lp5856
I0
aI0
aI0
aa(lp5857
I14
aI1
aI0
aa(lp5858
I3
aI1
aI0
aa(lp5859
I22
aI4
aI0
aa(lp5860
I17
aI1
aI0
aa(lp5861
I10
aI0
aI0
aa(lp5862
I0
aI0
aI0
aa(lp5863
I2
aI0
aI0
aa(lp5864
I0
aI0
aI0
aa(lp5865
I9
aI2
aI0
aa(lp5866
I20
aI3
aI0
aa(lp5867
I1
aI0
aI0
aa(lp5868
I0
aI0
aI0
aa(lp5869
I3
aI0
aI0
aa(lp5870
I2
aI0
aI0
aa(lp5871
I6
aI0
aI0
aa(lp5872
I0
aI0
aI0
aa(lp5873
I1
aI1
aI1
aa(lp5874
I14
aI5
aI0
aa(lp5875
I0
aI0
aI0
aa(lp5876
I5
aI2
aI0
aa(lp5877
I0
aI0
aI0
aa(lp5878
I9
aI2
aI0
aa(lp5879
I0
aI0
aI0
aa(lp5880
I0
aI0
aI0
aa(lp5881
I5
aI0
aI0
aa(lp5882
I19
aI7
aI1
aa(lp5883
I13
aI0
aI0
aa(lp5884
I7
aI1
aI0
aa(lp5885
I0
aI0
aI0
aa(lp5886
I21
aI7
aI0
aa(lp5887
I3
aI0
aI0
aa(lp5888
I17
aI1
aI0
aa(lp5889
I3
aI0
aI0
aa(lp5890
I3
aI0
aI0
aa(lp5891
I13
aI4
aI1
aa(lp5892
I28
aI9
aI0
aa(lp5893
I24
aI0
aI0
aa(lp5894
I7
aI0
aI0
aa(lp5895
I9
aI0
aI0
aa(lp5896
I4
aI3
aI1
aa(lp5897
I3
aI2
aI1
aa(lp5898
I21
aI9
aI1
aa(lp5899
I14
aI4
aI0
aa(lp5900
I30
aI7
aI0
aa(lp5901
I4
aI0
aI0
aa(lp5902
I1
aI0
aI0
aa(lp5903
I5
aI0
aI0
aa(lp5904
I0
aI0
aI0
aa(lp5905
I19
aI0
aI0
aa(lp5906
I6
aI0
aI0
aa(lp5907
I20
aI1
aI0
aa(lp5908
I0
aI0
aI0
aa(lp5909
I2
aI0
aI0
aa(lp5910
I10
aI0
aI0
aa(lp5911
I20
aI7
aI0
aa(lp5912
I3
aI0
aI0
aa(lp5913
I0
aI0
aI0
aa(lp5914
I1
aI0
aI0
aa(lp5915
I10
aI2
aI0
aa(lp5916
I10
aI2
aI0
aa(lp5917
I18
aI2
aI0
aa(lp5918
I11
aI0
aI0
aa(lp5919
I6
aI0
aI0
aa(lp5920
I1
aI0
aI0
aa(lp5921
I0
aI0
aI0
aa(lp5922
I3
aI1
aI0
aa(lp5923
I1
aI0
aI0
aa(lp5924
I7
aI0
aI0
aa(lp5925
I5
aI0
aI0
aa(lp5926
I2
aI0
aI0
aa(lp5927
I0
aI0
aI0
aa(lp5928
I0
aI0
aI0
aa(lp5929
I0
aI0
aI0
aa(lp5930
I3
aI2
aI1
aa(lp5931
I19
aI2
aI0
aa(lp5932
I16
aI12
aI1
aa(lp5933
I0
aI0
aI0
aa(lp5934
I4
aI1
aI1
aa(lp5935
I0
aI0
aI0
aa(lp5936
I32
aI0
aI0
aa(lp5937
I32
aI4
aI0
aa(lp5938
I12
aI0
aI0
aa(lp5939
I6
aI2
aI0
aa(lp5940
I4
aI0
aI0
aa(lp5941
I4
aI2
aI1
aa(lp5942
I2
aI1
aI1
aa(lp5943
I1
aI1
aI1
aa(lp5944
I0
aI0
aI0
aa(lp5945
I18
aI2
aI0
aa(lp5946
I1
aI1
aI1
aa(lp5947
I2
aI0
aI0
aa(lp5948
I0
aI0
aI0
aa(lp5949
I7
aI0
aI0
aa(lp5950
I8
aI0
aI0
aa(lp5951
I8
aI1
aI0
aa(lp5952
I0
aI0
aI0
aa(lp5953
I15
aI3
aI1
aa(lp5954
I8
aI1
aI0
aa(lp5955
I11
aI3
aI0
aa(lp5956
I13
aI0
aI0
aa(lp5957
I8
aI0
aI0
aa(lp5958
I4
aI0
aI0
aa(lp5959
I22
aI10
aI1
aa(lp5960
I2
aI0
aI0
aa(lp5961
I2
aI1
aI1
aa(lp5962
I0
aI0
aI0
aa(lp5963
I0
aI0
aI0
aa(lp5964
I3
aI0
aI0
aa(lp5965
I2
aI1
aI0
aa(lp5966
I0
aI0
aI0
aa(lp5967
I0
aI0
aI0
aa(lp5968
I7
aI0
aI0
aa(lp5969
I2
aI0
aI0
aa(lp5970
I7
aI2
aI1
aa(lp5971
I5
aI1
aI0
aa(lp5972
I4
aI3
aI1
aa(lp5973
I4
aI3
aI1
aa(lp5974
I15
aI3
aI0
aa(lp5975
I14
aI8
aI1
aa(lp5976
I0
aI0
aI0
aa(lp5977
I6
aI1
aI0
aa(lp5978
I2
aI1
aI1
aa(lp5979
I2
aI0
aI0
aa(lp5980
I0
aI0
aI0
aa(lp5981
I0
aI0
aI0
aa(lp5982
I0
aI0
aI0
aa(lp5983
I6
aI0
aI0
aa(lp5984
I15
aI9
aI1
aa(lp5985
I13
aI10
aI1
aa(lp5986
I12
aI4
aI0
aa(lp5987
I6
aI3
aI1
aa(lp5988
I3
aI1
aI1
aa(lp5989
I2
aI0
aI0
aa(lp5990
I9
aI1
aI0
aa(lp5991
I23
aI11
aI1
aa(lp5992
I3
aI0
aI0
aa(lp5993
I0
aI0
aI0
aa(lp5994
I6
aI1
aI0
aa(lp5995
I8
aI4
aI0
aa(lp5996
I16
aI3
aI0
aa(lp5997
I7
aI0
aI0
aa(lp5998
I1
aI0
aI0
aa(lp5999
I29
aI9
aI0
aa(lp6000
I13
aI5
aI0
aa(lp6001
I28
aI2
aI0
aa(lp6002
I18
aI3
aI1
aa(lp6003
I7
aI3
aI0
aa(lp6004
I1
aI0
aI0
aa(lp6005
I19
aI0
aI0
aa(lp6006
I21
aI1
aI0
aa(lp6007
I1
aI0
aI0
aa(lp6008
I1
aI0
aI0
aa(lp6009
I1
aI1
aI1
aa(lp6010
I18
aI6
aI0
aa(lp6011
I23
aI3
aI0
aa(lp6012
I3
aI0
aI0
aa(lp6013
I14
aI11
aI1
aa(lp6014
I24
aI11
aI1
aa(lp6015
I12
aI1
aI0
aa(lp6016
I7
aI1
aI0
aa(lp6017
I7
aI0
aI0
aa(lp6018
I3
aI0
aI0
aa(lp6019
I5
aI1
aI1
aa(lp6020
I8
aI0
aI0
aa(lp6021
I9
aI0
aI0
aa(lp6022
I14
aI1
aI0
aa(lp6023
I2
aI0
aI0
aa(lp6024
I5
aI0
aI0
aa(lp6025
I1
aI0
aI0
aa(lp6026
I14
aI1
aI0
aa(lp6027
I5
aI0
aI0
aa(lp6028
I16
aI10
aI1
aa(lp6029
I10
aI1
aI0
aa(lp6030
I11
aI3
aI1
aa(lp6031
I9
aI0
aI0
aa(lp6032
I4
aI0
aI0
aa(lp6033
I2
aI0
aI0
aa(lp6034
I1
aI1
aI1
aa(lp6035
I7
aI1
aI0
aa(lp6036
I17
aI3
aI0
aa(lp6037
I7
aI0
aI0
aa(lp6038
I1
aI0
aI0
aa(lp6039
I5
aI4
aI1
aa(lp6040
I0
aI0
aI0
aa(lp6041
I13
aI4
aI1
aa(lp6042
I0
aI0
aI0
aa(lp6043
I5
aI3
aI1
aa(lp6044
I15
aI5
aI0
aa(lp6045
I1
aI0
aI0
aa(lp6046
I0
aI0
aI0
aa(lp6047
I5
aI0
aI0
aa(lp6048
I10
aI0
aI0
aa(lp6049
I0
aI0
aI0
aa(lp6050
I11
aI1
aI0
aa(lp6051
I20
aI0
aI0
aa(lp6052
I6
aI0
aI0
aa(lp6053
I14
aI1
aI0
aa(lp6054
I7
aI0
aI0
aa(lp6055
I2
aI1
aI1
aa(lp6056
I0
aI0
aI0
aa(lp6057
I0
aI0
aI0
aa(lp6058
I2
aI0
aI0
aa(lp6059
I29
aI1
aI0
aa(lp6060
I14
aI5
aI1
aa(lp6061
I6
aI0
aI0
aa(lp6062
I24
aI6
aI1
aa(lp6063
I0
aI0
aI0
aa(lp6064
I22
aI2
aI1
aa(lp6065
I10
aI8
aI1
aa(lp6066
I24
aI12
aI1
aa(lp6067
I17
aI9
aI1
aa(lp6068
I10
aI1
aI0
aa(lp6069
I10
aI1
aI0
aa(lp6070
I9
aI0
aI0
aa(lp6071
I6
aI3
aI1
aa(lp6072
I3
aI1
aI0
aa(lp6073
I10
aI1
aI0
aa(lp6074
I10
aI4
aI1
aa(lp6075
I7
aI1
aI1
aa(lp6076
I3
aI1
aI0
aa(lp6077
I5
aI0
aI0
aa(lp6078
I8
aI1
aI1
aa(lp6079
I20
aI4
aI0
aa(lp6080
I6
aI0
aI0
aa(lp6081
I4
aI0
aI0
aa(lp6082
I1
aI0
aI0
aa(lp6083
I1
aI0
aI0
aa(lp6084
I3
aI1
aI1
aa(lp6085
I10
aI1
aI0
aa(lp6086
I0
aI0
aI0
aa(lp6087
I0
aI0
aI0
aa(lp6088
I21
aI3
aI0
aa(lp6089
I0
aI0
aI0
aa(lp6090
I0
aI0
aI0
aa(lp6091
I4
aI0
aI0
aa(lp6092
I17
aI0
aI0
aa(lp6093
I10
aI0
aI0
aa(lp6094
I1
aI0
aI0
aa(lp6095
I19
aI0
aI0
aa(lp6096
I1
aI0
aI0
aa(lp6097
I26
aI12
aI1
aa(lp6098
I30
aI10
aI1
aa(lp6099
I25
aI13
aI1
aa(lp6100
I0
aI0
aI0
aa(lp6101
I0
aI0
aI0
aa(lp6102
I8
aI2
aI0
aa(lp6103
I34
aI4
aI0
aa(lp6104
I27
aI12
aI0
aa(lp6105
I31
aI7
aI0
aa(lp6106
I16
aI0
aI0
aa(lp6107
I6
aI5
aI1
aa(lp6108
I22
aI5
aI0
aa(lp6109
I23
aI2
aI0
aa(lp6110
I10
aI1
aI1
aa(lp6111
I24
aI2
aI0
aa(lp6112
I4
aI1
aI0
aa(lp6113
I25
aI2
aI0
aa(lp6114
I11
aI1
aI0
aa(lp6115
I26
aI2
aI0
aa(lp6116
I5
aI1
aI0
aa(lp6117
I27
aI2
aI0
aa(lp6118
I12
aI1
aI0
aa(lp6119
I6
aI1
aI0
aa(lp6120
I13
aI1
aI0
aa(lp6121
I7
aI1
aI0
aa(lp6122
I28
aI2
aI0
aa(lp6123
I8
aI1
aI0
aa(lp6124
I29
aI2
aI0
aa(lp6125
I9
aI1
aI0
aa(lp6126
I14
aI1
aI0
aa(lp6127
I10
aI1
aI0
aa(lp6128
I30
aI2
aI0
aa(lp6129
I11
aI1
aI0
aa(lp6130
I15
aI2
aI1
aa(lp6131
I16
aI2
aI0
aa(lp6132
I31
aI2
aI0
aa(lp6133
I17
aI2
aI0
aa(lp6134
I12
aI1
aI0
aa(lp6135
I18
aI2
aI0
aa(lp6136
I32
aI2
aI0
aa(lp6137
I19
aI2
aI0
aa(lp6138
I13
aI1
aI0
aa(lp6139
I20
aI2
aI0
aa(lp6140
I33
aI2
aI0
aa(lp6141
I21
aI2
aI0
aa(lp6142
I14
aI1
aI0
aa(lp6143
I7
aI3
aI0
aa(lp6144
I20
aI4
aI0
aa(lp6145
I1
aI0
aI0
aa(lp6146
I21
aI5
aI1
aa(lp6147
I3
aI0
aI0
aa(lp6148
I6
aI0
aI0
aa(lp6149
I7
aI2
aI0
aa(lp6150
I11
aI2
aI0
aa(lp6151
I9
aI2
aI0
aa(lp6152
I18
aI0
aI0
aa(lp6153
I10
aI1
aI0
aa(lp6154
I4
aI2
aI1
aa(lp6155
I6
aI2
aI1
aa(lp6156
I3
aI1
aI0
aa(lp6157
I14
aI6
aI0
aa(lp6158
I2
aI0
aI0
aa(lp6159
I2
aI2
aI1
aa(lp6160
I6
aI0
aI0
aa(lp6161
I17
aI1
aI0
aa(lp6162
I34
aI2
aI0
aa(lp6163
I22
aI2
aI0
aa(lp6164
I0
aI0
aI0
aa(lp6165
I2
aI0
aI0
aa(lp6166
I1
aI0
aI0
aa(lp6167
I0
aI0
aI0
aa(lp6168
I2
aI0
aI0
aa(lp6169
I3
aI0
aI0
aa(lp6170
I0
aI0
aI0
aa(lp6171
I0
aI0
aI0
aa(lp6172
I0
aI0
aI0
aa(lp6173
I0
aI0
aI0
aa(lp6174
I0
aI0
aI0
aa(lp6175
I1
aI0
aI0
aa(lp6176
I0
aI0
aI0
aa(lp6177
I2
aI0
aI0
aa(lp6178
I1
aI1
aI1
aa(lp6179
I0
aI0
aI0
aa(lp6180
I6
aI1
aI0
aa(lp6181
I12
aI4
aI0
aa(lp6182
I17
aI1
aI1
aa(lp6183
I5
aI0
aI0
aa(lp6184
I3
aI0
aI0
aa(lp6185
I18
aI10
aI1
aa(lp6186
I3
aI1
aI1
aa(lp6187
I0
aI0
aI0
aa(lp6188
I14
aI9
aI1
aa(lp6189
I18
aI4
aI1
aa(lp6190
I20
aI5
aI0
aa(lp6191
I10
aI2
aI1
aa(lp6192
I6
aI1
aI1
aa(lp6193
I5
aI4
aI1
aa(lp6194
I1
aI0
aI0
aa(lp6195
I6
aI0
aI0
aa(lp6196
I16
aI8
aI0
aa(lp6197
I25
aI7
aI1
aa(lp6198
I1
aI0
aI0
aa(lp6199
I2
aI2
aI1
aa(lp6200
I0
aI0
aI0
aa(lp6201
I29
aI3
aI0
aa(lp6202
I3
aI0
aI0
aa(lp6203
I2
aI0
aI0
aa(lp6204
I0
aI0
aI0
aa(lp6205
I1
aI0
aI0
aa(lp6206
I1
aI0
aI0
aa(lp6207
I2
aI0
aI0
aa(lp6208
I4
aI0
aI0
aa(lp6209
I9
aI1
aI0
aa(lp6210
I0
aI0
aI0
aa(lp6211
I0
aI0
aI0
aa(lp6212
I1
aI0
aI0
aa(lp6213
I0
aI0
aI0
aa(lp6214
I0
aI0
aI0
aa(lp6215
I0
aI0
aI0
aa(lp6216
I0
aI0
aI0
aa(lp6217
I1
aI0
aI0
aa(lp6218
I0
aI0
aI0
aa(lp6219
I0
aI0
aI0
aa(lp6220
I0
aI0
aI0
aa(lp6221
I1
aI0
aI0
aa(lp6222
I0
aI0
aI0
aa(lp6223
I0
aI0
aI0
aa(lp6224
I1
aI0
aI0
aa(lp6225
I6
aI0
aI0
aa(lp6226
I1
aI0
aI0
aa(lp6227
I17
aI8
aI0
aa(lp6228
I4
aI0
aI0
aa(lp6229
I0
aI0
aI0
aa(lp6230
I4
aI0
aI0
aa(lp6231
I8
aI3
aI0
aa(lp6232
I32
aI7
aI0
aa(lp6233
I3
aI2
aI1
aa(lp6234
I1
aI0
aI0
aa(lp6235
I14
aI3
aI0
aa(lp6236
I0
aI0
aI0
aa(lp6237
I0
aI0
aI0
aa(lp6238
I0
aI0
aI0
aa(lp6239
I0
aI0
aI0
aa(lp6240
I0
aI0
aI0
aa(lp6241
I0
aI0
aI0
aa(lp6242
I0
aI0
aI0
aa(lp6243
I8
aI0
aI0
aa(lp6244
I1
aI0
aI0
aa(lp6245
I16
aI0
aI0
aa(lp6246
I1
aI0
aI0
aa(lp6247
I1
aI0
aI0
aa(lp6248
I0
aI0
aI0
aa(lp6249
I1
aI0
aI0
aa(lp6250
I3
aI2
aI1
aa(lp6251
I1
aI1
aI1
aa(lp6252
I0
aI0
aI0
aa(lp6253
I0
aI0
aI0
aa(lp6254
I0
aI0
aI0
aa(lp6255
I0
aI0
aI0
aa(lp6256
I0
aI0
aI0
aa(lp6257
I0
aI0
aI0
aa(lp6258
I1
aI0
aI0
aa(lp6259
I2
aI0
aI0
aa(lp6260
I2
aI0
aI0
aa(lp6261
I0
aI0
aI0
aa(lp6262
I0
aI0
aI0
aa(lp6263
I8
aI0
aI0
aa(lp6264
I1
aI0
aI0
aa(lp6265
I7
aI0
aI0
aa(lp6266
I1
aI0
aI0
aa(lp6267
I2
aI0
aI0
aa(lp6268
I15
aI1
aI0
aa(lp6269
I35
aI2
aI0
aa(lp6270
I14
aI4
aI1
aa(lp6271
I26
aI13
aI0
aa(lp6272
I19
aI6
aI0
aa(lp6273
I5
aI0
aI0
aa(lp6274
I2
aI0
aI0
aa(lp6275
I5
aI2
aI0
aa(lp6276
I0
aI0
aI0
aa(lp6277
I0
aI0
aI0
aa(lp6278
I11
aI5
aI0
aa(lp6279
I3
aI0
aI0
aa(lp6280
I0
aI0
aI0
aa(lp6281
I15
aI6
aI0
aa(lp6282
I13
aI5
aI1
aa(lp6283
I15
aI10
aI1
aa(lp6284
I11
aI4
aI0
aa(lp6285
I1
aI0
aI0
aa(lp6286
I6
aI1
aI0
aa(lp6287
I8
aI7
aI1
aa(lp6288
I15
aI4
aI0
aa(lp6289
I17
aI0
aI0
aa(lp6290
I0
aI0
aI0
aa(lp6291
I0
aI0
aI0
aa(lp6292
I5
aI2
aI1
aa(lp6293
I7
aI1
aI0
aa(lp6294
I8
aI0
aI0
aa(lp6295
I2
aI0
aI0
aa(lp6296
I14
aI0
aI0
aa(lp6297
I8
aI1
aI0
aa(lp6298
I0
aI0
aI0
aa(lp6299
I0
aI0
aI0
aa(lp6300
I19
aI11
aI1
aa(lp6301
I2
aI0
aI0
aa(lp6302
I2
aI0
aI0
aa(lp6303
I13
aI1
aI0
aa(lp6304
I2
aI1
aI0
aa(lp6305
I17
aI11
aI1
aa(lp6306
I9
aI1
aI0
aa(lp6307
I0
aI0
aI0
aa(lp6308
I5
aI4
aI1
aa(lp6309
I0
aI0
aI0
aa(lp6310
I0
aI0
aI0
aa(lp6311
I1
aI0
aI0
aa(lp6312
I0
aI0
aI0
aa(lp6313
I0
aI0
aI0
aa(lp6314
I18
aI12
aI1
aa(lp6315
I0
aI0
aI0
aa(lp6316
I4
aI2
aI1
aa(lp6317
I33
aI0
aI0
aa(lp6318
I29
aI2
aI0
aa(lp6319
I21
aI5
aI0
aa(lp6320
I3
aI1
aI0
aa(lp6321
I9
aI1
aI1
aa(lp6322
I2
aI0
aI0
aa(lp6323
I1
aI0
aI0
aa(lp6324
I0
aI0
aI0
aa(lp6325
I34
aI0
aI0
aa(lp6326
I3
aI1
aI0
aa(lp6327
I0
aI0
aI0
aa(lp6328
I1
aI0
aI0
aa(lp6329
I30
aI1
aI0
aa(lp6330
I0
aI0
aI0
aa(lp6331
I3
aI0
aI0
aa(lp6332
I0
aI0
aI0
aa(lp6333
I21
aI4
aI0
aa(lp6334
I20
aI0
aI0
aa(lp6335
I19
aI4
aI1
aa(lp6336
I22
aI3
aI0
aa(lp6337
I17
aI10
aI0
aa(lp6338
I12
aI1
aI0
aa(lp6339
I0
aI0
aI0
aa(lp6340
I0
aI0
aI0
aa(lp6341
I0
aI0
aI0
aa(lp6342
I4
aI2
aI1
aa(lp6343
I9
aI5
aI1
aa(lp6344
I18
aI8
aI0
aa(lp6345
I4
aI1
aI1
aa(lp6346
I25
aI0
aI0
aa(lp6347
I15
aI9
aI1
aa(lp6348
I27
aI2
aI0
aa(lp6349
I20
aI5
aI0
aa(lp6350
I9
aI2
aI0
aa(lp6351
I9
aI0
aI0
aa(lp6352
I6
aI0
aI0
aa(lp6353
I14
aI1
aI0
aa(lp6354
I11
aI5
aI0
aa(lp6355
I13
aI5
aI1
aa(lp6356
I0
aI0
aI0
aa(lp6357
I0
aI0
aI0
aa(lp6358
I0
aI0
aI0
aa(lp6359
I0
aI0
aI0
aa(lp6360
I2
aI0
aI0
aa(lp6361
I6
aI3
aI0
aa(lp6362
I22
aI6
aI1
aa(lp6363
I15
aI1
aI0
aa(lp6364
I11
aI1
aI0
aa(lp6365
I1
aI0
aI0
aa(lp6366
I13
aI4
aI0
aa(lp6367
I10
aI0
aI0
aa(lp6368
I12
aI7
aI1
aa(lp6369
I2
aI0
aI0
aa(lp6370
I7
aI2
aI0
aa(lp6371
I1
aI0
aI0
aa(lp6372
I13
aI3
aI0
aa(lp6373
I3
aI0
aI0
aa(lp6374
I9
aI0
aI0
aa(lp6375
I24
aI3
aI0
aa(lp6376
I30
aI3
aI1
aa(lp6377
I3
aI0
aI0
aa(lp6378
I35
aI0
aI0
aa(lp6379
I18
aI0
aI0
aa(lp6380
I0
aI0
aI0
aa(lp6381
I6
aI2
aI0
aa(lp6382
I5
aI2
aI1
aa(lp6383
I1
aI0
aI0
aa(lp6384
I21
aI6
aI1
aa(lp6385
I12
aI1
aI0
aa(lp6386
I0
aI0
aI0
aa(lp6387
I0
aI0
aI0
aa(lp6388
I1
aI1
aI1
aa(lp6389
I0
aI0
aI0
aa(lp6390
I2
aI0
aI0
aa(lp6391
I0
aI0
aI0
aa(lp6392
I4
aI2
aI1
aa(lp6393
I13
aI2
aI1
aa(lp6394
I1
aI0
aI0
aa(lp6395
I20
aI6
aI0
aa(lp6396
I10
aI10
aI1
aa(lp6397
I25
aI3
aI0
aa(lp6398
I6
aI2
aI0
aa(lp6399
I11
aI0
aI0
aa(lp6400
I0
aI0
aI0
aa(lp6401
I2
aI0
aI0
aa(lp6402
I9
aI0
aI0
aa(lp6403
I14
aI4
aI1
aa(lp6404
I5
aI2
aI0
aa(lp6405
I0
aI0
aI0
aa(lp6406
I6
aI0
aI0
aa(lp6407
I6
aI0
aI0
aa(lp6408
I11
aI3
aI1
aa(lp6409
I25
aI11
aI0
aa(lp6410
I19
aI0
aI0
aa(lp6411
I18
aI0
aI0
aa(lp6412
I9
aI3
aI1
aa(lp6413
I14
aI0
aI0
aa(lp6414
I6
aI3
aI1
aa(lp6415
I4
aI0
aI0
aa(lp6416
I31
aI1
aI0
aa(lp6417
I19
aI5
aI1
aa(lp6418
I3
aI0
aI0
aa(lp6419
I1
aI0
aI0
aa(lp6420
I2
aI0
aI0
aa(lp6421
I2
aI0
aI0
aa(lp6422
I11
aI5
aI1
aa(lp6423
I0
aI0
aI0
aa(lp6424
I0
aI0
aI0
aa(lp6425
I10
aI0
aI0
aa(lp6426
I0
aI0
aI0
aa(lp6427
I3
aI0
aI0
aa(lp6428
I32
aI1
aI0
aa(lp6429
I31
aI11
aI1
aa(lp6430
I8
aI2
aI1
aa(lp6431
I0
aI0
aI0
aa(lp6432
I8
aI2
aI1
aa(lp6433
I5
aI2
aI0
aa(lp6434
I5
aI5
aI1
aa(lp6435
I2
aI0
aI0
aa(lp6436
I22
aI6
aI0
aa(lp6437
I11
aI0
aI0
aa(lp6438
I21
aI0
aI0
aa(lp6439
I0
aI0
aI0
aa(lp6440
I1
aI0
aI0
aa(lp6441
I1
aI0
aI0
aa(lp6442
I22
aI7
aI0
aa(lp6443
I10
aI0
aI0
aa(lp6444
I12
aI3
aI0
aa(lp6445
I11
aI1
aI0
aa(lp6446
I11
aI2
aI1
aa(lp6447
I3
aI0
aI0
aa(lp6448
I2
aI0
aI0
aa(lp6449
I5
aI2
aI1
aa(lp6450
I20
aI4
aI0
aa(lp6451
I28
aI2
aI0
aa(lp6452
I16
aI0
aI0
aa(lp6453
I14
aI1
aI0
aa(lp6454
I5
aI3
aI1
aa(lp6455
I8
aI0
aI0
aa(lp6456
I10
aI0
aI0
aa(lp6457
I12
aI1
aI0
aa(lp6458
I0
aI0
aI0
aa(lp6459
I0
aI0
aI0
aa(lp6460
I29
aI2
aI0
aa(lp6461
I15
aI1
aI0
aa(lp6462
I9
aI0
aI0
aa(lp6463
I15
aI4
aI0
aa(lp6464
I8
aI0
aI0
aa(lp6465
I7
aI0
aI0
aa(lp6466
I0
aI0
aI0
aa(lp6467
I11
aI1
aI0
aa(lp6468
I0
aI0
aI0
aa(lp6469
I7
aI1
aI1
aa(lp6470
I12
aI0
aI0
aa(lp6471
I8
aI2
aI0
aa(lp6472
I36
aI0
aI0
aa(lp6473
I14
aI6
aI1
aa(lp6474
I1
aI0
aI0
aa(lp6475
I6
aI2
aI1
aa(lp6476
I16
aI4
aI1
aa(lp6477
I1
aI1
aI1
aa(lp6478
I4
aI0
aI0
aa(lp6479
I9
aI2
aI1
aa(lp6480
I26
aI3
aI0
aa(lp6481
I21
aI4
aI0
aa(lp6482
I11
aI8
aI0
aa(lp6483
I6
aI0
aI0
aa(lp6484
I23
aI2
aI0
aa(lp6485
I36
aI2
aI0
aa(lp6486
I16
aI1
aI0
aa(lp6487
I9
aI8
aI1
aa(lp6488
I21
aI7
aI0
aa(lp6489
I0
aI0
aI0
aa(lp6490
I20
aI6
aI1
aa(lp6491
I21
aI0
aI0
aa(lp6492
I16
aI5
aI1
aa(lp6493
I0
aI0
aI0
aa(lp6494
I5
aI3
aI0
aa(lp6495
I3
aI0
aI0
aa(lp6496
I20
aI12
aI1
aa(lp6497
I1
aI0
aI0
aa(lp6498
I0
aI0
aI0
aa(lp6499
I2
aI0
aI0
aa(lp6500
I0
aI0
aI0
aa(lp6501
I0
aI0
aI0
aa(lp6502
I0
aI0
aI0
aa(lp6503
I0
aI0
aI0
aa(lp6504
I17
aI0
aI0
aa(lp6505
I6
aI1
aI0
aa(lp6506
I1
aI1
aI1
aa(lp6507
I8
aI2
aI0
aa(lp6508
I28
aI12
aI0
aa(lp6509
I32
aI11
aI0
aa(lp6510
I1
aI1
aI1
aa(lp6511
I1
aI1
aI1
aa(lp6512
I23
aI6
aI0
aa(lp6513
I22
aI0
aI0
aa(lp6514
I1
aI1
aI1
aa(lp6515
I37
aI0
aI0
aa(lp6516
I3
aI1
aI0
aa(lp6517
I23
aI5
aI1
aa(lp6518
I7
aI0
aI0
aa(lp6519
I1
aI1
aI1
aa(lp6520
I1
aI1
aI1
aa(lp6521
I23
aI8
aI1
aa(lp6522
I18
aI0
aI0
aa(lp6523
I0
aI0
aI0
aa(lp6524
I1
aI1
aI1
aa(lp6525
I0
aI0
aI0
aa(lp6526
I30
aI3
aI0
aa(lp6527
I1
aI0
aI0
aa(lp6528
I3
aI0
aI0
aa(lp6529
I1
aI0
aI0
aa(lp6530
I1
aI1
aI1
aa(lp6531
I9
aI2
aI0
aa(lp6532
I0
aI0
aI0
aa(lp6533
I33
aI1
aI0
aa(lp6534
I0
aI0
aI0
aa(lp6535
I1
aI0
aI0
aa(lp6536
I0
aI0
aI0
aa(lp6537
I4
aI0
aI0
aa(lp6538
I24
aI2
aI0
aa(lp6539
I25
aI2
aI0
aa(lp6540
I26
aI2
aI0
aa(lp6541
I1
aI0
aI0
aa(lp6542
I11
aI0
aI0
aa(lp6543
I6
aI6
aI1
aa(lp6544
I0
aI0
aI0
aa(lp6545
I5
aI0
aI0
aa(lp6546
I3
aI2
aI1
aa(lp6547
I0
aI0
aI0
aa(lp6548
I5
aI1
aI0
aa(lp6549
I0
aI0
aI0
aa(lp6550
I0
aI0
aI0
aa(lp6551
I0
aI0
aI0
aa(lp6552
I0
aI0
aI0
aa(lp6553
I0
aI0
aI0
aa(lp6554
I38
aI0
aI0
aa(lp6555
I1
aI0
aI0
aa(lp6556
I16
aI5
aI0
aa(lp6557
I1
aI0
aI0
aa(lp6558
I15
aI12
aI1
aa(lp6559
I17
aI7
aI0
aa(lp6560
I10
aI6
aI1
aa(lp6561
I9
aI3
aI1
aa(lp6562
I8
aI2
aI0
aa(lp6563
I7
aI0
aI0
aa(lp6564
I0
aI0
aI0
aa(lp6565
I0
aI0
aI0
aa(lp6566
I0
aI0
aI0
aa(lp6567
I0
aI0
aI0
aa(lp6568
I2
aI1
aI1
aa(lp6569
I4
aI0
aI0
aa(lp6570
I14
aI1
aI0
aa(lp6571
I31
aI3
aI0
aa(lp6572
I12
aI9
aI1
aa(lp6573
I7
aI6
aI1
aa(lp6574
I3
aI2
aI1
aa(lp6575
I15
aI5
aI1
aa(lp6576
I14
aI2
aI0
aa(lp6577
I2
aI0
aI0
aa(lp6578
I7
aI3
aI0
aa(lp6579
I1
aI0
aI0
aa(lp6580
I2
aI0
aI0
aa(lp6581
I9
aI0
aI0
aa(lp6582
I0
aI0
aI0
aa(lp6583
I0
aI0
aI0
aa(lp6584
I7
aI0
aI0
aa(lp6585
I7
aI0
aI0
aa(lp6586
I5
aI0
aI0
aa(lp6587
I23
aI5
aI0
aa(lp6588
I17
aI8
aI0
aa(lp6589
I6
aI0
aI0
aa(lp6590
I15
aI7
aI1
aa(lp6591
I0
aI0
aI0
aa(lp6592
I1
aI0
aI0
aa(lp6593
I15
aI1
aI0
aa(lp6594
I4
aI1
aI0
aa(lp6595
I6
aI0
aI0
aa(lp6596
I8
aI1
aI0
aa(lp6597
I34
aI1
aI0
aa(lp6598
I23
aI6
aI0
aa(lp6599
I0
aI0
aI0
aa(lp6600
I8
aI0
aI0
aa(lp6601
I8
aI0
aI0
aa(lp6602
I15
aI5
aI0
aa(lp6603
I1
aI0
aI0
aa(lp6604
I3
aI2
aI1
aa(lp6605
I0
aI0
aI0
aa(lp6606
I0
aI0
aI0
aa(lp6607
I10
aI1
aI0
aa(lp6608
I9
aI2
aI0
aa(lp6609
I17
aI5
aI0
aa(lp6610
I16
aI3
aI0
aa(lp6611
I6
aI2
aI1
aa(lp6612
I4
aI3
aI1
aa(lp6613
I14
aI10
aI1
aa(lp6614
I21
aI6
aI0
aa(lp6615
I7
aI0
aI0
aa(lp6616
I0
aI0
aI0
aa(lp6617
I11
aI1
aI0
aa(lp6618
I2
aI0
aI0
aa(lp6619
I2
aI0
aI0
aa(lp6620
I0
aI0
aI0
aa(lp6621
I0
aI0
aI0
aa(lp6622
I0
aI0
aI0
aa(lp6623
I7
aI1
aI0
aa(lp6624
I3
aI1
aI1
aa(lp6625
I0
aI0
aI0
aa(lp6626
I10
aI4
aI1
aa(lp6627
I16
aI6
aI1
aa(lp6628
I13
aI4
aI1
aa(lp6629
I23
aI3
aI0
aa(lp6630
I0
aI0
aI0
aa(lp6631
I11
aI0
aI0
aa(lp6632
I8
aI0
aI0
aa(lp6633
I6
aI1
aI0
aa(lp6634
I1
aI0
aI0
aa(lp6635
I2
aI0
aI0
aa(lp6636
I3
aI0
aI0
aa(lp6637
I27
aI13
aI0
aa(lp6638
I26
aI0
aI0
aa(lp6639
I33
aI7
aI0
aa(lp6640
I22
aI5
aI0
aa(lp6641
I32
aI3
aI0
aa(lp6642
I21
aI13
aI1
aa(lp6643
I12
aI5
aI0
aa(lp6644
I15
aI4
aI0
aa(lp6645
I22
aI14
aI1
aa(lp6646
I4
aI0
aI0
aa(lp6647
I2
aI2
aI1
aa(lp6648
I4
aI1
aI0
aa(lp6649
I6
aI0
aI0
aa(lp6650
I6
aI0
aI0
aa(lp6651
I11
aI5
aI1
aa(lp6652
I5
aI3
aI1
aa(lp6653
I16
aI2
aI1
aa(lp6654
I0
aI0
aI0
aa(lp6655
I11
aI1
aI0
aa(lp6656
I17
aI5
aI0
aa(lp6657
I0
aI0
aI0
aa(lp6658
I39
aI0
aI0
aa(lp6659
I23
aI0
aI0
aa(lp6660
I7
aI0
aI0
aa(lp6661
I4
aI1
aI0
aa(lp6662
I15
aI2
aI0
aa(lp6663
I3
aI0
aI0
aa(lp6664
I26
aI11
aI0
aa(lp6665
I31
aI3
aI0
aa(lp6666
I18
aI1
aI0
aa(lp6667
I0
aI0
aI0
aa(lp6668
I35
aI4
aI0
aa(lp6669
I20
aI0
aI0
aa(lp6670
I0
aI0
aI0
aa(lp6671
I19
aI0
aI0
aa(lp6672
I9
aI0
aI0
aa(lp6673
I0
aI0
aI0
aa(lp6674
I33
aI4
aI1
aa(lp6675
I27
aI3
aI0
aa(lp6676
I17
aI2
aI0
aa(lp6677
I0
aI0
aI0
aa(lp6678
I8
aI3
aI0
aa(lp6679
I0
aI0
aI0
aa(lp6680
I19
aI8
aI0
aa(lp6681
I3
aI0
aI0
aa(lp6682
I1
aI0
aI0
aa(lp6683
I8
aI3
aI1
aa(lp6684
I6
aI4
aI1
aa(lp6685
I0
aI0
aI0
aa(lp6686
I6
aI1
aI1
aa(lp6687
I7
aI4
aI0
aa(lp6688
I0
aI0
aI0
aa(lp6689
I7
aI1
aI0
aa(lp6690
I10
aI9
aI1
aa(lp6691
I13
aI10
aI1
aa(lp6692
I4
aI3
aI1
aa(lp6693
I4
aI0
aI0
aa(lp6694
I36
aI4
aI0
aa(lp6695
I4
aI0
aI0
aa(lp6696
I3
aI0
aI0
aa(lp6697
I17
aI7
aI1
aa(lp6698
I9
aI1
aI0
aa(lp6699
I33
aI11
aI0
aa(lp6700
I18
aI7
aI0
aa(lp6701
I24
aI7
aI1
aa(lp6702
I2
aI2
aI1
aa(lp6703
I3
aI0
aI0
aa(lp6704
I7
aI0
aI0
aa(lp6705
I8
aI0
aI0
aa(lp6706
I9
aI0
aI0
aa(lp6707
I2
aI0
aI0
aa(lp6708
I24
aI0
aI0
aa(lp6709
I1
aI0
aI0
aa(lp6710
I10
aI0
aI0
aa(lp6711
I5
aI0
aI0
aa(lp6712
I19
aI1
aI0
aa(lp6713
I24
aI5
aI0
aa(lp6714
I18
aI1
aI0
aa(lp6715
I3
aI0
aI0
aa(lp6716
I5
aI3
aI1
aa(lp6717
I3
aI2
aI1
aa(lp6718
I29
aI12
aI0
aa(lp6719
I8
aI1
aI0
aa(lp6720
I6
aI0
aI0
aa(lp6721
I8
aI4
aI0
aa(lp6722
I1
aI0
aI0
aa(lp6723
I19
aI0
aI0
aa(lp6724
I7
aI3
aI0
aa(lp6725
I6
aI0
aI0
aa(lp6726
I2
aI0
aI0
aa(lp6727
I16
aI2
aI0
aa(lp6728
I14
aI5
aI1
aa(lp6729
I18
aI9
aI1
aa(lp6730
I12
aI3
aI1
aa(lp6731
I0
aI0
aI0
aa(lp6732
I0
aI0
aI0
aa(lp6733
I0
aI0
aI0
aa(lp6734
I0
aI0
aI0
aa(lp6735
I1
aI1
aI1
aa(lp6736
I7
aI7
aI1
aa(lp6737
I10
aI0
aI0
aa(lp6738
I27
aI11
aI0
aa(lp6739
I7
aI4
aI1
aa(lp6740
I1
aI0
aI0
aa(lp6741
I8
aI2
aI0
aa(lp6742
I1
aI0
aI0
aa(lp6743
I1
aI1
aI1
aa(lp6744
I4
aI1
aI0
aa(lp6745
I15
aI0
aI0
aa(lp6746
I1
aI1
aI1
aa(lp6747
I34
aI12
aI1
aa(lp6748
I11
aI0
aI0
aa(lp6749
I12
aI4
aI0
aa(lp6750
I17
aI4
aI1
aa(lp6751
I24
aI6
aI0
aa(lp6752
I4
aI0
aI0
aa(lp6753
I22
aI4
aI0
aa(lp6754
I20
aI0
aI0
aa(lp6755
I3
aI0
aI0
aa(lp6756
I15
aI3
aI0
aa(lp6757
I5
aI1
aI0
aa(lp6758
I6
aI4
aI1
aa(lp6759
I25
aI8
aI1
aa(lp6760
I7
aI6
aI0
aa(lp6761
I1
aI0
aI0
aa(lp6762
I17
aI2
aI0
aa(lp6763
I16
aI8
aI1
aa(lp6764
I0
aI0
aI0
aa(lp6765
I18
aI8
aI1
aa(lp6766
I19
aI7
aI0
aa(lp6767
I22
aI0
aI0
aa(lp6768
I8
aI0
aI0
aa(lp6769
I16
aI5
aI0
aa(lp6770
I12
aI3
aI0
aa(lp6771
I1
aI1
aI1
aa(lp6772
I6
aI2
aI0
aa(lp6773
I1
aI0
aI0
aa(lp6774
I13
aI8
aI1
aa(lp6775
I12
aI0
aI0
aa(lp6776
I3
aI2
aI1
aa(lp6777
I3
aI1
aI0
aa(lp6778
I1
aI1
aI1
aa(lp6779
I1
aI0
aI0
aa(lp6780
I5
aI0
aI0
aa(lp6781
I10
aI1
aI1
aa(lp6782
I20
aI2
aI0
aa(lp6783
I11
aI2
aI1
aa(lp6784
I1
aI0
aI0
aa(lp6785
I22
aI7
aI1
aa(lp6786
I25
aI0
aI0
aa(lp6787
I22
aI4
aI0
aa(lp6788
I7
aI1
aI0
aa(lp6789
I11
aI6
aI0
aa(lp6790
I9
aI0
aI0
aa(lp6791
I11
aI0
aI0
aa(lp6792
I9
aI1
aI0
aa(lp6793
I9
aI4
aI1
aa(lp6794
I10
aI0
aI0
aa(lp6795
I12
aI3
aI0
aa(lp6796
I2
aI0
aI0
aa(lp6797
I37
aI2
aI0
aa(lp6798
I1
aI0
aI0
aa(lp6799
I23
aI4
aI0
aa(lp6800
I1
aI0
aI0
aa(lp6801
I3
aI0
aI0
aa(lp6802
I4
aI1
aI1
aa(lp6803
I3
aI0
aI0
aa(lp6804
I2
aI0
aI0
aa(lp6805
I0
aI0
aI0
aa(lp6806
I0
aI0
aI0
aa(lp6807
I0
aI0
aI0
aa(lp6808
I4
aI0
aI0
aa(lp6809
I4
aI0
aI0
aa(lp6810
I6
aI2
aI1
aa(lp6811
I4
aI0
aI0
aa(lp6812
I0
aI0
aI0
aa(lp6813
I0
aI0
aI0
aa(lp6814
I0
aI0
aI0
aa(lp6815
I0
aI0
aI0
aa(lp6816
I34
aI7
aI0
aa(lp6817
I0
aI0
aI0
aa(lp6818
I0
aI0
aI0
aa(lp6819
I3
aI0
aI0
aa(lp6820
I1
aI0
aI0
aa(lp6821
I3
aI0
aI0
aa(lp6822
I3
aI1
aI0
aa(lp6823
I35
aI1
aI0
aa(lp6824
I4
aI1
aI0
aa(lp6825
I1
aI0
aI0
aa(lp6826
I0
aI0
aI0
aa(lp6827
I0
aI0
aI0
aa(lp6828
I0
aI0
aI0
aa(lp6829
I3
aI0
aI0
aa(lp6830
I9
aI0
aI0
aa(lp6831
I2
aI0
aI0
aa(lp6832
I0
aI0
aI0
aa(lp6833
I1
aI0
aI0
aa(lp6834
I2
aI0
aI0
aa(lp6835
I15
aI1
aI0
aa(lp6836
I19
aI2
aI0
aa(lp6837
I15
aI0
aI0
aa(lp6838
I15
aI3
aI0
aa(lp6839
I0
aI0
aI0
aa(lp6840
I0
aI0
aI0
aa(lp6841
I5
aI0
aI0
aa(lp6842
I5
aI0
aI0
aa(lp6843
I0
aI0
aI0
aa(lp6844
I0
aI0
aI0
aa(lp6845
I1
aI0
aI0
aa(lp6846
I1
aI0
aI0
aa(lp6847
I0
aI0
aI0
aa(lp6848
I0
aI0
aI0
aa(lp6849
I0
aI0
aI0
aa(lp6850
I0
aI0
aI0
aa(lp6851
I0
aI0
aI0
aa(lp6852
I0
aI0
aI0
aa(lp6853
I0
aI0
aI0
aa(lp6854
I0
aI0
aI0
aa(lp6855
I7
aI3
aI1
aa(lp6856
I0
aI0
aI0
aa(lp6857
I0
aI0
aI0
aa(lp6858
I0
aI0
aI0
aa(lp6859
I12
aI1
aI0
aa(lp6860
I1
aI1
aI1
aa(lp6861
I2
aI0
aI0
aa(lp6862
I12
aI0
aI0
aa(lp6863
I5
aI0
aI0
aa(lp6864
I18
aI2
aI0
aa(lp6865
I13
aI1
aI1
aa(lp6866
I2
aI0
aI0
aa(lp6867
I12
aI1
aI0
aa(lp6868
I7
aI1
aI1
aa(lp6869
I23
aI0
aI0
aa(lp6870
I1
aI0
aI0
aa(lp6871
I14
aI4
aI0
aa(lp6872
I3
aI0
aI0
aa(lp6873
I8
aI1
aI0
aa(lp6874
I35
aI7
aI0
aa(lp6875
I16
aI13
aI1
aa(lp6876
I24
aI3
aI0
aa(lp6877
I27
aI0
aI0
aa(lp6878
I0
aI0
aI0
aa(lp6879
I0
aI0
aI0
aa(lp6880
I0
aI0
aI0
aa(lp6881
I6
aI1
aI0
aa(lp6882
I0
aI0
aI0
aa(lp6883
I20
aI0
aI0
aa(lp6884
I1
aI0
aI0
aa(lp6885
I0
aI0
aI0
aa(lp6886
I9
aI2
aI0
aa(lp6887
I7
aI2
aI0
aa(lp6888
I35
aI12
aI0
aa(lp6889
I15
aI4
aI0
aa(lp6890
I25
aI5
aI0
aa(lp6891
I13
aI0
aI0
aa(lp6892
I2
aI1
aI1
aa(lp6893
I0
aI0
aI0
aa(lp6894
I1
aI0
aI0
aa(lp6895
I13
aI6
aI1
aa(lp6896
I9
aI1
aI1
aa(lp6897
I12
aI1
aI0
aa(lp6898
I10
aI2
aI0
aa(lp6899
I11
aI11
aI1
aa(lp6900
I14
aI11
aI1
aa(lp6901
I2
aI0
aI0
aa(lp6902
I6
aI4
aI1
aa(lp6903
I5
aI4
aI1
aa(lp6904
I16
aI11
aI1
aa(lp6905
I14
aI9
aI1
aa(lp6906
I7
aI2
aI0
aa(lp6907
I7
aI0
aI0
aa(lp6908
I7
aI3
aI0
aa(lp6909
I1
aI0
aI0
aa(lp6910
I7
aI4
aI0
aa(lp6911
I3
aI0
aI0
aa(lp6912
I4
aI1
aI1
aa(lp6913
I6
aI1
aI1
aa(lp6914
I24
aI9
aI1
aa(lp6915
I8
aI0
aI0
aa(lp6916
I9
aI4
aI1
aa(lp6917
I3
aI0
aI0
aa(lp6918
I0
aI0
aI0
aa(lp6919
I9
aI1
aI0
aa(lp6920
I0
aI0
aI0
aa(lp6921
I1
aI0
aI0
aa(lp6922
I0
aI0
aI0
aa(lp6923
I4
aI1
aI1
aa(lp6924
I7
aI2
aI0
aa(lp6925
I1
aI0
aI0
aa(lp6926
I0
aI0
aI0
aa(lp6927
I0
aI0
aI0
aa(lp6928
I6
aI0
aI0
aa(lp6929
I1
aI0
aI0
aa(lp6930
I5
aI0
aI0
aa(lp6931
I0
aI0
aI0
aa(lp6932
I3
aI2
aI1
aa(lp6933
I4
aI0
aI0
aa(lp6934
I13
aI4
aI1
aa(lp6935
I18
aI5
aI0
aa(lp6936
I1
aI0
aI0
aa(lp6937
I10
aI0
aI0
aa(lp6938
I2
aI0
aI0
aa(lp6939
I0
aI0
aI0
aa(lp6940
I8
aI2
aI0
aa(lp6941
I2
aI1
aI1
aa(lp6942
I26
aI9
aI1
aa(lp6943
I4
aI2
aI1
aa(lp6944
I9
aI2
aI0
aa(lp6945
I8
aI0
aI0
aa(lp6946
I40
aI0
aI0
aa(lp6947
I5
aI0
aI0
aa(lp6948
I19
aI2
aI1
aa(lp6949
I13
aI1
aI0
aa(lp6950
I41
aI0
aI0
aa(lp6951
I1
aI0
aI0
aa(lp6952
I7
aI0
aI0
aa(lp6953
I9
aI0
aI0
aa(lp6954
I12
aI0
aI0
aa(lp6955
I10
aI0
aI0
aa(lp6956
I6
aI5
aI1
aa(lp6957
I15
aI12
aI1
aa(lp6958
I0
aI0
aI0
aa(lp6959
I19
aI13
aI1
aa(lp6960
I8
aI1
aI0
aa(lp6961
I21
aI0
aI0
aa(lp6962
I7
aI2
aI1
aa(lp6963
I21
aI6
aI0
aa(lp6964
I26
aI0
aI0
aa(lp6965
I28
aI13
aI0
aa(lp6966
I18
aI6
aI1
aa(lp6967
I20
aI7
aI0
aa(lp6968
I34
aI4
aI0
aa(lp6969
I8
aI7
aI1
aa(lp6970
I2
aI0
aI0
aa(lp6971
I7
aI1
aI1
aa(lp6972
I14
aI1
aI0
aa(lp6973
I6
aI0
aI0
aa(lp6974
I17
aI0
aI0
aa(lp6975
I7
aI1
aI0
aa(lp6976
I10
aI1
aI0
aa(lp6977
I12
aI2
aI0
aa(lp6978
I12
aI0
aI0
aa(lp6979
I13
aI3
aI1
aa(lp6980
I13
aI0
aI0
aa(lp6981
I17
aI6
aI1
aa(lp6982
I17
aI0
aI0
aa(lp6983
I15
aI11
aI1
aa(lp6984
I17
aI14
aI1
aa(lp6985
I15
aI6
aI1
aa(lp6986
I16
aI0
aI0
aa(lp6987
I8
aI1
aI1
aa(lp6988
I9
aI1
aI0
aa(lp6989
I10
aI0
aI0
aa(lp6990
I7
aI5
aI1
aa(lp6991
I12
aI12
aI1
aa(lp6992
I30
aI2
aI0
aa(lp6993
I8
aI0
aI0
aa(lp6994
I28
aI11
aI0
aa(lp6995
I10
aI1
aI0
aa(lp6996
I14
aI6
aI1
aa(lp6997
I22
aI0
aI0
aa(lp6998
I8
aI3
aI1
aa(lp6999
I12
aI6
aI1
aa(lp7000
I3
aI0
aI0
aa(lp7001
I20
aI13
aI0
aa(lp7002
I12
aI1
aI0
aa(lp7003
I42
aI0
aI0
aa(lp7004
I2
aI0
aI0
aa(lp7005
I5
aI1
aI0
aa(lp7006
I10
aI2
aI0
aa(lp7007
I24
aI0
aI0
aa(lp7008
I1
aI0
aI0
aa(lp7009
I1
aI0
aI0
aa(lp7010
I1
aI0
aI0
aa(lp7011
I1
aI0
aI0
aa(lp7012
I12
aI5
aI0
aa(lp7013
I1
aI0
aI0
aa(lp7014
I11
aI0
aI0
aa(lp7015
I4
aI0
aI0
aa(lp7016
I1
aI0
aI0
aa(lp7017
I0
aI0
aI0
aa(lp7018
I36
aI1
aI0
aa(lp7019
I16
aI4
aI0
aa(lp7020
I9
aI3
aI0
aa(lp7021
I18
aI4
aI0
aa(lp7022
I1
aI0
aI0
aa(lp7023
I5
aI1
aI0
aa(lp7024
I10
aI1
aI1
aa(lp7025
I5
aI1
aI0
aa(lp7026
I4
aI0
aI0
aa(lp7027
I0
aI0
aI0
aa(lp7028
I35
aI4
aI0
aa(lp7029
I8
aI0
aI0
aa(lp7030
I7
aI3
aI0
aa(lp7031
I10
aI1
aI0
aa(lp7032
I19
aI2
aI0
aa(lp7033
I5
aI0
aI0
aa(lp7034
I11
aI0
aI0
aa(lp7035
I38
aI2
aI0
aa(lp7036
I7
aI1
aI0
aa(lp7037
I16
aI1
aI0
aa(lp7038
I22
aI6
aI0
aa(lp7039
I28
aI0
aI0
aa(lp7040
I14
aI4
aI0
aa(lp7041
I15
aI4
aI0
aa(lp7042
I16
aI13
aI1
aa(lp7043
I29
aI13
aI0
aa(lp7044
I5
aI4
aI1
aa(lp7045
I18
aI15
aI1
aa(lp7046
I9
aI1
aI0
aa(lp7047
I9
aI0
aI0
aa(lp7048
I8
aI8
aI1
aa(lp7049
I18
aI0
aI0
aa(lp7050
I1
aI0
aI0
aa(lp7051
I4
aI0
aI0
aa(lp7052
I7
aI0
aI0
aa(lp7053
I2
aI1
aI0
aa(lp7054
I1
aI0
aI0
aa(lp7055
I17
aI14
aI1
aa(lp7056
I7
aI5
aI1
aa(lp7057
I29
aI0
aI0
aa(lp7058
I8
aI2
aI0
aa(lp7059
I18
aI2
aI0
aa(lp7060
I3
aI0
aI0
aa(lp7061
I13
aI1
aI0
aa(lp7062
I13
aI1
aI0
aa(lp7063
I17
aI4
aI1
aa(lp7064
I7
aI0
aI0
aa(lp7065
I43
aI0
aI0
aa(lp7066
I16
aI0
aI0
aa(lp7067
I13
aI3
aI0
aa(lp7068
I7
aI0
aI0
aa(lp7069
I1
aI1
aI1
aa(lp7070
I24
aI5
aI0
aa(lp7071
I12
aI0
aI0
aa(lp7072
I12
aI2
aI0
aa(lp7073
I8
aI3
aI1
aa(lp7074
I0
aI0
aI0
aa(lp7075
I7
aI0
aI0
aa(lp7076
I9
aI1
aI0
aa(lp7077
I19
aI1
aI1
aa(lp7078
I14
aI0
aI0
aa(lp7079
I1
aI0
aI0
aa(lp7080
I1
aI0
aI0
aa(lp7081
I36
aI7
aI0
aa(lp7082
I24
aI4
aI0
aa(lp7083
I23
aI0
aI0
aa(lp7084
I5
aI2
aI1
aa(lp7085
I20
aI2
aI0
aa(lp7086
I15
aI1
aI0
aa(lp7087
I0
aI0
aI0
aa(lp7088
I16
aI4
aI0
aa(lp7089
I3
aI1
aI0
aa(lp7090
I0
aI0
aI0
aa(lp7091
I6
aI1
aI1
aa(lp7092
I29
aI11
aI0
aa(lp7093
I5
aI2
aI0
aa(lp7094
I17
aI0
aI0
aa(lp7095
I1
aI0
aI0
aa(lp7096
I18
aI15
aI1
aa(lp7097
I19
aI4
aI0
aa(lp7098
I3
aI1
aI0
aa(lp7099
I6
aI2
aI0
aa(lp7100
I26
aI5
aI0
aa(lp7101
I5
aI0
aI0
aa(lp7102
I11
aI2
aI0
aa(lp7103
I30
aI14
aI1
aa(lp7104
I30
aI12
aI0
aa(lp7105
I23
aI5
aI0
aa(lp7106
I23
aI4
aI0
aa(lp7107
I1
aI1
aI1
aa(lp7108
I20
aI2
aI0
aa(lp7109
I0
aI0
aI0
aa(lp7110
I13
aI0
aI0
aa(lp7111
I2
aI0
aI0
aa(lp7112
I2
aI0
aI0
aa(lp7113
I7
aI0
aI0
aa(lp7114
I3
aI0
aI0
aa(lp7115
I8
aI5
aI1
aa(lp7116
I2
aI1
aI1
aa(lp7117
I2
aI0
aI0
aa(lp7118
I2
aI0
aI0
aa(lp7119
I3
aI0
aI0
aa(lp7120
I3
aI1
aI1
aa(lp7121
I28
aI3
aI0
aa(lp7122
I44
aI0
aI0
aa(lp7123
I1
aI0
aI0
aa(lp7124
I10
aI0
aI0
aa(lp7125
I4
aI2
aI0
aa(lp7126
I8
aI6
aI1
aa(lp7127
I11
aI10
aI1
aa(lp7128
I16
aI9
aI0
aa(lp7129
I10
aI4
aI1
aa(lp7130
I39
aI2
aI0
aa(lp7131
I6
aI0
aI0
aa(lp7132
I0
aI0
aI0
aa(lp7133
I2
aI0
aI0
aa(lp7134
I11
aI0
aI0
aa(lp7135
I0
aI0
aI0
aa(lp7136
I27
aI0
aI0
aa(lp7137
I24
aI5
aI1
aa(lp7138
I23
aI6
aI0
aa(lp7139
I40
aI2
aI0
aa(lp7140
I45
aI0
aI0
aa(lp7141
I29
aI3
aI0
aa(lp7142
I13
aI12
aI0
aa(lp7143
I2
aI2
aI1
aa(lp7144
I13
aI0
aI0
aa(lp7145
I8
aI1
aI0
aa(lp7146
I10
aI1
aI0
aa(lp7147
I8
aI0
aI0
aa(lp7148
I8
aI0
aI0
aa(lp7149
I8
aI1
aI0
aa(lp7150
I4
aI0
aI0
aa(lp7151
I14
aI5
aI0
aa(lp7152
I4
aI0
aI0
aa(lp7153
I24
aI0
aI0
aa(lp7154
I11
aI0
aI0
aa(lp7155
I30
aI0
aI0
aa(lp7156
I15
aI1
aI0
aa(lp7157
I25
aI0
aI0
aa(lp7158
I14
aI1
aI0
aa(lp7159
I37
aI7
aI0
aa(lp7160
I16
aI3
aI0
aa(lp7161
I19
aI16
aI1
aa(lp7162
I11
aI1
aI0
aa(lp7163
I20
aI0
aI0
aa(lp7164
I10
aI1
aI0
aa(lp7165
I17
aI3
aI0
aa(lp7166
I15
aI1
aI0
aa(lp7167
I23
aI7
aI0
aa(lp7168
I6
aI3
aI1
aa(lp7169
I12
aI6
aI1
aa(lp7170
I11
aI0
aI0
aa(lp7171
I18
aI1
aI0
aa(lp7172
I5
aI0
aI0
aa(lp7173
I3
aI0
aI0
aa(lp7174
I4
aI0
aI0
aa(lp7175
I0
aI0
aI0
aa(lp7176
I2
aI0
aI0
aa(lp7177
I0
aI0
aI0
aa(lp7178
I10
aI0
aI0
aa(lp7179
I4
aI0
aI0
aa(lp7180
I3
aI0
aI0
aa(lp7181
I5
aI0
aI0
aa(lp7182
I9
aI4
aI1
aa(lp7183
I6
aI3
aI0
aa(lp7184
I19
aI9
aI1
aa(lp7185
I9
aI1
aI0
aa(lp7186
I0
aI0
aI0
aa(lp7187
I4
aI2
aI1
aa(lp7188
I3
aI1
aI1
aa(lp7189
I1
aI0
aI0
aa(lp7190
I13
aI1
aI0
aa(lp7191
I4
aI0
aI0
aa(lp7192
I0
aI0
aI0
aa(lp7193
I31
aI2
aI0
aa(lp7194
I21
aI8
aI1
aa(lp7195
I1
aI0
aI0
aa(lp7196
I0
aI0
aI0
aa(lp7197
I1
aI0
aI0
aa(lp7198
I25
aI4
aI0
aa(lp7199
I9
aI1
aI0
aa(lp7200
I2
aI0
aI0
aa(lp7201
I1
aI0
aI0
aa(lp7202
I9
aI9
aI1
aa(lp7203
I9
aI7
aI1
aa(lp7204
I37
aI4
aI0
aa(lp7205
I25
aI9
aI0
aa(lp7206
I6
aI0
aI0
aa(lp7207
I25
aI0
aI0
aa(lp7208
I5
aI0
aI0
aa(lp7209
I1
aI1
aI1
aa(lp7210
I0
aI0
aI0
aa(lp7211
I1
aI0
aI0
aa(lp7212
I1
aI0
aI0
aa(lp7213
I1
aI0
aI0
aa(lp7214
I6
aI1
aI0
aa(lp7215
I4
aI0
aI0
aa(lp7216
I0
aI0
aI0
aa(lp7217
I22
aI7
aI0
aa(lp7218
I4
aI0
aI0
aa(lp7219
I7
aI0
aI0
aa(lp7220
I25
aI5
aI0
aa(lp7221
I19
aI1
aI0
aa(lp7222
I10
aI3
aI1
aa(lp7223
I13
aI3
aI0
aa(lp7224
I11
aI1
aI0
aa(lp7225
I11
aI0
aI0
aa(lp7226
I27
aI2
aI0
aa(lp7227
I38
aI7
aI0
aa(lp7228
I26
aI4
aI0
aa(lp7229
I13
aI4
aI0
aa(lp7230
I36
aI4
aI0
aa(lp7231
I20
aI10
aI1
aa(lp7232
I10
aI1
aI0
aa(lp7233
I31
aI12
aI0
aa(lp7234
I38
aI4
aI0
aa(lp7235
I37
aI1
aI0
aa(lp7236
I10
aI4
aI0
aa(lp7237
I4
aI3
aI1
aa(lp7238
I5
aI0
aI0
aa(lp7239
I2
aI1
aI1
aa(lp7240
I3
aI0
aI0
aa(lp7241
I26
aI10
aI1
aa(lp7242
I7
aI4
aI1
aa(lp7243
I5
aI3
aI1
aa(lp7244
I12
aI2
aI0
aa(lp7245
I21
aI0
aI0
aa(lp7246
I19
aI2
aI0
aa(lp7247
I14
aI3
aI0
aa(lp7248
I2
aI0
aI0
aa(lp7249
I0
aI0
aI0
aa(lp7250
I1
aI0
aI0
aa(lp7251
I0
aI0
aI0
aa(lp7252
I4
aI1
aI0
aa(lp7253
I0
aI0
aI0
aa(lp7254
I0
aI0
aI0
aa(lp7255
I16
aI1
aI0
aa(lp7256
I10
aI2
aI0
aa(lp7257
I1
aI0
aI0
aa(lp7258
I0
aI0
aI0
aa(lp7259
I19
aI10
aI1
aa(lp7260
I4
aI3
aI1
aa(lp7261
I3
aI0
aI0
aa(lp7262
I16
aI6
aI0
aa(lp7263
I4
aI2
aI0
aa(lp7264
I11
aI4
aI1
aa(lp7265
I17
aI12
aI1
aa(lp7266
I20
aI1
aI0
aa(lp7267
I21
aI0
aI0
aa(lp7268
I7
aI1
aI0
aa(lp7269
I38
aI1
aI0
aa(lp7270
I27
aI4
aI0
aa(lp7271
I37
aI4
aI0
aa(lp7272
I5
aI0
aI0
aa(lp7273
I31
aI0
aI0
aa(lp7274
I25
aI6
aI0
aa(lp7275
I31
aI15
aI1
aa(lp7276
I12
aI0
aI0
aa(lp7277
I26
aI6
aI0
aa(lp7278
I10
aI8
aI1
aa(lp7279
I8
aI3
aI0
aa(lp7280
I5
aI3
aI0
aa(lp7281
I2
aI0
aI0
aa(lp7282
I1
aI0
aI0
aa(lp7283
I26
aI0
aI0
aa(lp7284
I2
aI0
aI0
aa(lp7285
I20
aI11
aI1
aa(lp7286
I21
aI2
aI0
aa(lp7287
I15
aI1
aI0
aa(lp7288
I28
aI0
aI0
aa(lp7289
I2
aI0
aI0
aa(lp7290
I46
aI0
aI0
aa(lp7291
I9
aI3
aI0
aa(lp7292
I39
aI4
aI0
aa(lp7293
I38
aI4
aI0
aa(lp7294
I12
aI11
aI1
aa(lp7295
I7
aI1
aI1
aa(lp7296
I27
aI0
aI0
aa(lp7297
I3
aI1
aI0
aa(lp7298
I21
aI2
aI0
aa(lp7299
I32
aI2
aI0
aa(lp7300
I36
aI12
aI0
aa(lp7301
I4
aI0
aI0
aa(lp7302
I22
aI0
aI0
aa(lp7303
I39
aI4
aI0
aa(lp7304
I14
aI1
aI0
aa(lp7305
I47
aI0
aI0
aa(lp7306
I8
aI0
aI0
aa(lp7307
I32
aI16
aI1
aa(lp7308
I10
aI3
aI0
aa(lp7309
I13
aI0
aI0
aa(lp7310
I10
aI2
aI0
aa(lp7311
I20
aI1
aI0
aa(lp7312
I10
aI2
aI1
aa(lp7313
I19
aI5
aI0
aa(lp7314
I14
aI13
aI1
aa(lp7315
I7
aI1
aI0
aa(lp7316
I2
aI0
aI0
aa(lp7317
I17
aI8
aI0
aa(lp7318
I3
aI0
aI0
aa(lp7319
I27
aI9
aI0
aa(lp7320
I11
aI2
aI0
aa(lp7321
I12
aI5
aI1
aa(lp7322
I0
aI0
aI0
aa(lp7323
I9
aI0
aI0
aa(lp7324
I7
aI6
aI1
aa(lp7325
I9
aI0
aI0
aa(lp7326
I20
aI3
aI1
aa(lp7327
I26
aI0
aI0
aa(lp7328
I8
aI4
aI0
aa(lp7329
I32
aI4
aI1
aa(lp7330
I18
aI8
aI0
aa(lp7331
I0
aI0
aI0
aa(lp7332
I0
aI0
aI0
aa(lp7333
I21
aI14
aI1
aa(lp7334
I27
aI0
aI0
aa(lp7335
I9
aI0
aI0
aa(lp7336
I8
aI1
aI0
aa(lp7337
I3
aI0
aI0
aa(lp7338
I16
aI4
aI0
aa(lp7339
I11
aI3
aI0
aa(lp7340
I13
aI1
aI1
aa(lp7341
I27
aI6
aI0
aa(lp7342
I2
aI0
aI0
aa(lp7343
I1
aI0
aI0
aa(lp7344
I28
aI0
aI0
aa(lp7345
I14
aI4
aI0
aa(lp7346
I9
aI6
aI1
aa(lp7347
I15
aI9
aI0
aa(lp7348
I5
aI1
aI0
aa(lp7349
I8
aI7
aI1
aa(lp7350
I9
aI8
aI1
aa(lp7351
I4
aI1
aI0
aa(lp7352
I21
aI11
aI1
aa(lp7353
I23
aI14
aI0
aa(lp7354
I11
aI2
aI1
aa(lp7355
I10
aI2
aI0
aa(lp7356
I14
aI5
aI1
aa(lp7357
I28
aI9
aI0
aa(lp7358
I12
aI3
aI0
aa(lp7359
I10
aI10
aI1
aa(lp7360
I19
aI8
aI0
aa(lp7361
I1
aI1
aI1
aa(lp7362
I1
aI0
aI0
aa(lp7363
I0
aI0
aI0
aa(lp7364
I27
aI11
aI1
aa(lp7365
I0
aI0
aI0
aa(lp7366
I23
aI7
aI0
aa(lp7367
I5
aI1
aI1
aa(lp7368
I8
aI1
aI0
aa(lp7369
I22
aI0
aI0
aa(lp7370
I1
aI0
aI0
aa(lp7371
I1
aI0
aI0
aa(lp7372
I32
aI0
aI0
aa(lp7373
I20
aI4
aI0
aa(lp7374
I2
aI2
aI1
aa(lp7375
I33
aI4
aI0
aa(lp7376
I39
aI1
aI0
aa(lp7377
I37
aI12
aI0
aa(lp7378
I16
aI1
aI0
aa(lp7379
I0
aI0
aI0
aa(lp7380
I8
aI0
aI0
aa(lp7381
I16
aI1
aI0
aa(lp7382
I0
aI0
aI0
aa(lp7383
I12
aI0
aI0
aa(lp7384
I4
aI1
aI0
aa(lp7385
I17
aI4
aI0
aa(lp7386
I24
aI6
aI1
aa(lp7387
I19
aI16
aI1
aa(lp7388
I0
aI0
aI0
aa(lp7389
I3
aI1
aI1
aa(lp7390
I17
aI0
aI0
aa(lp7391
I25
aI6
aI0
aa(lp7392
I4
aI0
aI0
aa(lp7393
I4
aI1
aI1
aa(lp7394
I3
aI2
aI1
aa(lp7395
I3
aI1
aI1
aa(lp7396
I2
aI0
aI0
aa(lp7397
I0
aI0
aI0
aa(lp7398
I3
aI2
aI0
aa(lp7399
I9
aI7
aI1
aa(lp7400
I2
aI0
aI0
aa(lp7401
I3
aI1
aI0
aa(lp7402
I16
aI7
aI1
aa(lp7403
I2
aI0
aI0
aa(lp7404
I10
aI5
aI1
aa(lp7405
I9
aI2
aI0
aa(lp7406
I4
aI3
aI1
aa(lp7407
I24
aI14
aI0
aa(lp7408
I3
aI0
aI0
aa(lp7409
I0
aI0
aI0
aa(lp7410
I17
aI10
aI1
aa(lp7411
I28
aI12
aI1
aa(lp7412
I10
aI0
aI0
aa(lp7413
I9
aI1
aI0
aa(lp7414
I11
aI0
aI0
aa(lp7415
I22
aI15
aI1
aa(lp7416
I9
aI1
aI0
aa(lp7417
I0
aI0
aI0
aa(lp7418
I24
aI8
aI1
aa(lp7419
I3
aI2
aI1
aa(lp7420
I8
aI4
aI0
aa(lp7421
I30
aI3
aI0
aa(lp7422
I29
aI0
aI0
aa(lp7423
I3
aI0
aI0
aa(lp7424
I16
aI12
aI1
aa(lp7425
I4
aI0
aI0
aa(lp7426
I7
aI0
aI0
aa(lp7427
I11
aI9
aI1
aa(lp7428
I17
aI4
aI0
aa(lp7429
I13
aI6
aI1
aa(lp7430
I2
aI0
aI0
aa(lp7431
I22
aI11
aI0
aa(lp7432
I7
aI1
aI0
aa(lp7433
I27
aI5
aI0
aa(lp7434
I11
aI0
aI0
aa(lp7435
I5
aI0
aI0
aa(lp7436
I18
aI6
aI0
aa(lp7437
I16
aI1
aI0
aa(lp7438
I4
aI2
aI1
aa(lp7439
I29
aI12
aI0
aa(lp7440
I0
aI0
aI0
aa(lp7441
I0
aI0
aI0
aa(lp7442
I0
aI0
aI0
aa(lp7443
I1
aI0
aI0
aa(lp7444
I33
aI0
aI0
aa(lp7445
I11
aI0
aI0
aa(lp7446
I12
aI6
aI0
aa(lp7447
I29
aI1
aI1
aa(lp7448
I29
aI10
aI1
aa(lp7449
I18
aI0
aI0
aa(lp7450
I23
aI0
aI0
aa(lp7451
I7
aI4
aI1
aa(lp7452
I10
aI1
aI0
aa(lp7453
I11
aI1
aI0
aa(lp7454
I5
aI3
aI1
aa(lp7455
I0
aI0
aI0
aa(lp7456
I25
aI5
aI0
aa(lp7457
I5
aI0
aI0
aa(lp7458
I25
aI8
aI0
aa(lp7459
I19
aI0
aI0
aa(lp7460
I8
aI0
aI0
aa(lp7461
I8
aI6
aI0
aa(lp7462
I14
aI7
aI1
aa(lp7463
I5
aI1
aI0
aa(lp7464
I13
aI2
aI0
aa(lp7465
I18
aI0
aI0
aa(lp7466
I13
aI7
aI1
aa(lp7467
I0
aI0
aI0
aa(lp7468
I1
aI0
aI0
aa(lp7469
I1
aI0
aI0
aa(lp7470
I20
aI9
aI1
aa(lp7471
I11
aI4
aI0
aa(lp7472
I12
aI0
aI0
aa(lp7473
I9
aI6
aI1
aa(lp7474
I9
aI1
aI1
aa(lp7475
I20
aI17
aI1
aa(lp7476
I12
aI10
aI1
aa(lp7477
I9
aI4
aI0
aa(lp7478
I12
aI1
aI0
aa(lp7479
I18
aI4
aI0
aa(lp7480
I26
aI8
aI0
aa(lp7481
I8
aI4
aI0
aa(lp7482
I0
aI0
aI0
aa(lp7483
I9
aI0
aI0
aa(lp7484
I27
aI8
aI0
aa(lp7485
I33
aI2
aI0
aa(lp7486
I30
aI11
aI0
aa(lp7487
I0
aI0
aI0
aa(lp7488
I31
aI3
aI0
aa(lp7489
I48
aI0
aI0
aa(lp7490
I32
aI3
aI0
aa(lp7491
I17
aI6
aI0
aa(lp7492
I21
aI10
aI1
aa(lp7493
I7
aI2
aI0
aa(lp7494
I4
aI0
aI0
aa(lp7495
I0
aI0
aI0
aa(lp7496
I10
aI0
aI0
aa(lp7497
I17
aI13
aI1
aa(lp7498
I20
aI16
aI0
aa(lp7499
I16
aI10
aI1
aa(lp7500
I2
aI2
aI1
aa(lp7501
I14
aI2
aI1
aa(lp7502
I4
aI0
aI0
aa(lp7503
I8
aI7
aI1
aa(lp7504
I5
aI4
aI1
aa(lp7505
I3
aI0
aI0
aa(lp7506
I4
aI0
aI0
aa(lp7507
I10
aI1
aI0
aa(lp7508
I21
aI18
aI1
aa(lp7509
I12
aI1
aI0
aa(lp7510
I5
aI2
aI0
aa(lp7511
I22
aI2
aI0
aa(lp7512
I12
aI3
aI1
aa(lp7513
I26
aI6
aI1
aa(lp7514
I38
aI12
aI0
aa(lp7515
I8
aI1
aI0
aa(lp7516
I33
aI16
aI0
aa(lp7517
I10
aI0
aI0
aa(lp7518
I2
aI0
aI0
aa(lp7519
I1
aI0
aI0
aa(lp7520
I20
aI1
aI0
aa(lp7521
I22
aI18
aI0
aa(lp7522
I20
aI9
aI1
aa(lp7523
I13
aI11
aI1
aa(lp7524
I8
aI4
aI1
aa(lp7525
I3
aI1
aI1
aa(lp7526
I13
aI3
aI0
aa(lp7527
I18
aI4
aI1
aa(lp7528
I0
aI0
aI0
aa(lp7529
I19
aI0
aI0
aa(lp7530
I39
aI12
aI0
aa(lp7531
I19
aI6
aI0
aa(lp7532
I21
aI4
aI0
aa(lp7533
I26
aI7
aI1
aa(lp7534
I2
aI0
aI0
aa(lp7535
I4
aI3
aI1
aa(lp7536
I11
aI5
aI1
aa(lp7537
I11
aI2
aI1
aa(lp7538
I20
aI0
aI0
aa(lp7539
I5
aI0
aI0
aa(lp7540
I23
aI2
aI0
aa(lp7541
I18
aI0
aI0
aa(lp7542
I41
aI2
aI0
aa(lp7543
I12
aI1
aI0
aa(lp7544
I10
aI3
aI1
aa(lp7545
I2
aI1
aI1
aa(lp7546
I20
aI5
aI0
aa(lp7547
I9
aI7
aI1
aa(lp7548
I1
aI0
aI0
aa(lp7549
I5
aI0
aI0
aa(lp7550
I25
aI15
aI1
aa(lp7551
I13
aI2
aI0
aa(lp7552
I13
aI0
aI0
aa(lp7553
I34
aI4
aI0
aa(lp7554
I5
aI0
aI0
aa(lp7555
I0
aI0
aI0
aa(lp7556
I15
aI14
aI1
aa(lp7557
I7
aI0
aI0
aa(lp7558
I9
aI8
aI1
aa(lp7559
I2
aI0
aI0
aa(lp7560
I4
aI0
aI0
aa(lp7561
I8
aI0
aI0
aa(lp7562
I1
aI0
aI0
aa(lp7563
I40
aI1
aI0
aa(lp7564
I39
aI7
aI0
aa(lp7565
I28
aI4
aI0
aa(lp7566
I17
aI1
aI0
aa(lp7567
I8
aI0
aI0
aa(lp7568
I6
aI5
aI1
aa(lp7569
I0
aI0
aI0
aa(lp7570
I3
aI1
aI0
aa(lp7571
I4
aI0
aI0
aa(lp7572
I0
aI0
aI0
aa(lp7573
I0
aI0
aI0
aa(lp7574
I17
aI1
aI0
aa(lp7575
I0
aI0
aI0
aa(lp7576
I8
aI0
aI0
aa(lp7577
I1
aI0
aI0
aa(lp7578
I0
aI0
aI0
aa(lp7579
I15
aI1
aI0
aa(lp7580
I17
aI4
aI0
aa(lp7581
I3
aI0
aI0
aa(lp7582
I0
aI0
aI0
aa(lp7583
I0
aI0
aI0
aa(lp7584
I0
aI0
aI0
aa(lp7585
I5
aI4
aI1
aa(lp7586
I21
aI1
aI0
aa(lp7587
I12
aI0
aI0
aa(lp7588
I14
aI7
aI1
aa(lp7589
I21
aI1
aI0
aa(lp7590
I15
aI8
aI1
aa(lp7591
I8
aI1
aI0
aa(lp7592
I6
aI2
aI1
aa(lp7593
I30
aI0
aI0
aa(lp7594
I21
aI3
aI0
aa(lp7595
I0
aI0
aI0
aa(lp7596
I0
aI0
aI0
aa(lp7597
I6
aI1
aI0
aa(lp7598
I6
aI0
aI0
aa(lp7599
I6
aI1
aI0
aa(lp7600
I0
aI0
aI0
aa(lp7601
I22
aI2
aI0
aa(lp7602
I9
aI2
aI1
aa(lp7603
I0
aI0
aI0
aa(lp7604
I30
aI13
aI1
aa(lp7605
I6
aI5
aI1
aa(lp7606
I0
aI0
aI0
aa(lp7607
I5
aI1
aI0
aa(lp7608
I3
aI1
aI1
aa(lp7609
I6
aI4
aI1
aa(lp7610
I8
aI3
aI0
aa(lp7611
I15
aI6
aI1
aa(lp7612
I3
aI0
aI0
aa(lp7613
I1
aI0
aI0
aa(lp7614
I14
aI0
aI0
aa(lp7615
I3
aI0
aI0
aa(lp7616
I3
aI0
aI0
aa(lp7617
I29
aI4
aI0
aa(lp7618
I12
aI3
aI0
aa(lp7619
I23
aI2
aI0
aa(lp7620
I5
aI4
aI1
aa(lp7621
I17
aI1
aI0
aa(lp7622
I9
aI2
aI0
aa(lp7623
I28
aI0
aI0
aa(lp7624
I3
aI2
aI0
aa(lp7625
I10
aI8
aI1
aa(lp7626
I1
aI0
aI0
aa(lp7627
I20
aI7
aI1
aa(lp7628
I19
aI0
aI0
aa(lp7629
I18
aI1
aI0
aa(lp7630
I19
aI4
aI0
aa(lp7631
I8
aI2
aI1
aa(lp7632
I0
aI0
aI0
aa(lp7633
I0
aI0
aI0
aa(lp7634
I2
aI0
aI0
aa(lp7635
I1
aI0
aI0
aa(lp7636
I5
aI0
aI0
aa(lp7637
I4
aI1
aI1
aa(lp7638
I17
aI8
aI1
aa(lp7639
I11
aI6
aI1
aa(lp7640
I32
aI12
aI0
aa(lp7641
I7
aI5
aI1
aa(lp7642
I14
aI12
aI1
aa(lp7643
I6
aI1
aI0
aa(lp7644
I0
aI0
aI0
aa(lp7645
I9
aI5
aI1
aa(lp7646
I0
aI0
aI0
aa(lp7647
I0
aI0
aI0
aa(lp7648
I11
aI7
aI0
aa(lp7649
I16
aI15
aI1
aa(lp7650
I14
aI8
aI1
aa(lp7651
I24
aI3
aI1
aa(lp7652
I10
aI4
aI0
aa(lp7653
I9
aI0
aI0
aa(lp7654
I8
aI2
aI0
aa(lp7655
I9
aI1
aI0
aa(lp7656
I4
aI1
aI1
aa(lp7657
I40
aI4
aI0
aa(lp7658
I27
aI7
aI0
aa(lp7659
I41
aI1
aI0
aa(lp7660
I21
aI7
aI0
aa(lp7661
I22
aI7
aI0
aa(lp7662
I13
aI1
aI0
aa(lp7663
I0
aI0
aI0
aa(lp7664
I31
aI0
aI0
aa(lp7665
I13
aI1
aI0
aa(lp7666
I15
aI0
aI0
aa(lp7667
I14
aI1
aI0
aa(lp7668
I26
aI6
aI1
aa(lp7669
I25
aI3
aI0
aa(lp7670
I10
aI7
aI1
aa(lp7671
I18
aI10
aI0
aa(lp7672
I3
aI0
aI0
aa(lp7673
I33
aI13
aI1
aa(lp7674
I40
aI7
aI0
aa(lp7675
I24
aI6
aI0
aa(lp7676
I31
aI11
aI0
aa(lp7677
I34
aI16
aI0
aa(lp7678
I13
aI0
aI0
aa(lp7679
I18
aI4
aI0
aa(lp7680
I6
aI3
aI1
aa(lp7681
I34
aI0
aI0
aa(lp7682
I18
aI13
aI1
aa(lp7683
I23
aI16
aI1
aa(lp7684
I30
aI1
aI0
aa(lp7685
I1
aI0
aI0
aa(lp7686
I5
aI1
aI1
aa(lp7687
I21
aI1
aI0
aa(lp7688
I22
aI1
aI0
aa(lp7689
I30
aI11
aI1
aa(lp7690
I27
aI6
aI0
aa(lp7691
I4
aI1
aI0
aa(lp7692
I12
aI1
aI0
aa(lp7693
I12
aI2
aI0
aa(lp7694
I7
aI4
aI0
aa(lp7695
I5
aI4
aI1
aa(lp7696
I6
aI4
aI0
aa(lp7697
I4
aI1
aI1
aa(lp7698
I7
aI0
aI0
aa(lp7699
I7
aI2
aI1
aa(lp7700
I0
aI0
aI0
aa(lp7701
I9
aI0
aI0
aa(lp7702
I0
aI0
aI0
aa(lp7703
I1
aI0
aI0
aa(lp7704
I0
aI0
aI0
aa(lp7705
I0
aI0
aI0
aa(lp7706
I20
aI5
aI1
aa(lp7707
I0
aI0
aI0
aa(lp7708
I6
aI6
aI1
aa(lp7709
I14
aI1
aI1
aa(lp7710
I4
aI3
aI1
aa(lp7711
I1
aI1
aI1
aa(lp7712
I0
aI0
aI0
aa(lp7713
I16
aI1
aI0
aa(lp7714
I0
aI0
aI0
aa(lp7715
I0
aI0
aI0
aa(lp7716
I23
aI19
aI1
aa(lp7717
I4
aI0
aI0
aa(lp7718
I0
aI0
aI0
aa(lp7719
I26
aI7
aI0
aa(lp7720
I21
aI12
aI1
aa(lp7721
I18
aI6
aI0
aa(lp7722
I15
aI7
aI0
aa(lp7723
I10
aI2
aI0
aa(lp7724
I18
aI14
aI1
aa(lp7725
I21
aI10
aI1
aa(lp7726
I25
aI6
aI0
aa(lp7727
I1
aI0
aI0
aa(lp7728
I34
aI3
aI1
aa(lp7729
I31
aI13
aI0
aa(lp7730
I11
aI1
aI0
aa(lp7731
I5
aI0
aI0
aa(lp7732
I1
aI0
aI0
aa(lp7733
I10
aI1
aI1
aa(lp7734
I2
aI0
aI0
aa(lp7735
I21
aI5
aI0
aa(lp7736
I5
aI1
aI1
aa(lp7737
I15
aI13
aI1
aa(lp7738
I5
aI0
aI0
aa(lp7739
I21
aI2
aI0
aa(lp7740
I8
aI1
aI0
aa(lp7741
I1
aI0
aI0
aa(lp7742
I1
aI0
aI0
aa(lp7743
I10
aI6
aI1
aa(lp7744
I12
aI6
aI1
aa(lp7745
I11
aI2
aI0
aa(lp7746
I28
aI2
aI0
aa(lp7747
I6
aI3
aI1
aa(lp7748
I5
aI2
aI1
aa(lp7749
I35
aI17
aI1
aa(lp7750
I31
aI1
aI0
aa(lp7751
I31
aI11
aI0
aa(lp7752
I22
aI13
aI1
aa(lp7753
I42
aI1
aI0
aa(lp7754
I22
aI2
aI1
aa(lp7755
I4
aI3
aI0
aa(lp7756
I24
aI0
aI0
aa(lp7757
I11
aI8
aI0
aa(lp7758
I36
aI17
aI0
aa(lp7759
I29
aI0
aI0
aa(lp7760
I37
aI17
aI0
aa(lp7761
I9
aI3
aI0
aa(lp7762
I3
aI0
aI0
aa(lp7763
I9
aI8
aI1
aa(lp7764
I1
aI0
aI0
aa(lp7765
I30
aI4
aI0
aa(lp7766
I0
aI0
aI0
aa(lp7767
I4
aI1
aI0
aa(lp7768
I0
aI0
aI0
aa(lp7769
I0
aI0
aI0
aa(lp7770
I14
aI2
aI0
aa(lp7771
I3
aI0
aI0
aa(lp7772
I1
aI1
aI1
aa(lp7773
I0
aI0
aI0
aa(lp7774
I20
aI2
aI0
aa(lp7775
I2
aI2
aI1
aa(lp7776
I4
aI0
aI0
aa(lp7777
I0
aI0
aI0
aa(lp7778
I9
aI4
aI1
aa(lp7779
I2
aI1
aI1
aa(lp7780
I0
aI0
aI0
aa(lp7781
I23
aI11
aI0
aa(lp7782
I25
aI3
aI0
aa(lp7783
I9
aI1
aI1
aa(lp7784
I18
aI9
aI1
aa(lp7785
I13
aI3
aI1
aa(lp7786
I8
aI0
aI0
aa(lp7787
I9
aI5
aI1
aa(lp7788
I0
aI0
aI0
aa(lp7789
I0
aI0
aI0
aa(lp7790
I6
aI1
aI0
aa(lp7791
I6
aI0
aI0
aa(lp7792
I1
aI0
aI0
aa(lp7793
I0
aI0
aI0
aa(lp7794
I1
aI0
aI0
aa(lp7795
I3
aI0
aI0
aa(lp7796
I0
aI0
aI0
aa(lp7797
I12
aI0
aI0
aa(lp7798
I14
aI4
aI1
aa(lp7799
I16
aI2
aI1
aa(lp7800
I9
aI0
aI0
aa(lp7801
I12
aI4
aI0
aa(lp7802
I26
aI3
aI0
aa(lp7803
I0
aI0
aI0
aa(lp7804
I2
aI0
aI0
aa(lp7805
I0
aI0
aI0
aa(lp7806
I41
aI7
aI0
aa(lp7807
I6
aI0
aI0
aa(lp7808
I4
aI2
aI1
aa(lp7809
I20
aI0
aI0
aa(lp7810
I13
aI6
aI0
aa(lp7811
I24
aI2
aI0
aa(lp7812
I2
aI0
aI0
aa(lp7813
I16
aI4
aI0
aa(lp7814
I11
aI11
aI1
aa(lp7815
I15
aI2
aI1
aa(lp7816
I5
aI2
aI0
aa(lp7817
I5
aI3
aI1
aa(lp7818
I2
aI0
aI0
aa(lp7819
I34
aI14
aI1
aa(lp7820
I35
aI0
aI0
aa(lp7821
I41
aI4
aI0
aa(lp7822
I32
aI0
aI0
aa(lp7823
I3
aI0
aI0
aa(lp7824
I0
aI0
aI0
aa(lp7825
I9
aI3
aI1
aa(lp7826
I8
aI6
aI1
aa(lp7827
I5
aI0
aI0
aa(lp7828
I1
aI0
aI0
aa(lp7829
I9
aI1
aI0
aa(lp7830
I5
aI0
aI0
aa(lp7831
I0
aI0
aI0
aa(lp7832
I2
aI0
aI0
aa(lp7833
I1
aI0
aI0
aa(lp7834
I0
aI0
aI0
aa(lp7835
I0
aI0
aI0
aa(lp7836
I1
aI0
aI0
aa(lp7837
I0
aI0
aI0
aa(lp7838
I0
aI0
aI0
aa(lp7839
I0
aI0
aI0
aa(lp7840
I18
aI1
aI0
aa(lp7841
I1
aI1
aI1
aa(lp7842
I0
aI0
aI0
aa(lp7843
I0
aI0
aI0
aa(lp7844
I10
aI0
aI0
aa(lp7845
I0
aI0
aI0
aa(lp7846
I0
aI0
aI0
aa(lp7847
I17
aI1
aI0
aa(lp7848
I11
aI1
aI0
aa(lp7849
I32
aI1
aI0
aa(lp7850
I23
aI0
aI0
aa(lp7851
I15
aI1
aI0
aa(lp7852
I10
aI9
aI1
aa(lp7853
I35
aI14
aI0
aa(lp7854
I0
aI0
aI0
aa(lp7855
I36
aI0
aI0
aa(lp7856
I7
aI1
aI0
aa(lp7857
I32
aI14
aI1
aa(lp7858
I13
aI0
aI0
aa(lp7859
I33
aI3
aI0
aa(lp7860
I11
aI2
aI0
aa(lp7861
I0
aI0
aI0
aa(lp7862
I0
aI0
aI0
aa(lp7863
I1
aI0
aI0
aa(lp7864
I0
aI0
aI0
aa(lp7865
I0
aI0
aI0
aa(lp7866
I10
aI2
aI1
aa(lp7867
I9
aI2
aI1
aa(lp7868
I0
aI0
aI0
aa(lp7869
I24
aI20
aI1
aa(lp7870
I16
aI1
aI0
aa(lp7871
I6
aI4
aI0
aa(lp7872
I7
aI0
aI0
aa(lp7873
I40
aI4
aI0
aa(lp7874
I0
aI0
aI0
aa(lp7875
I1
aI0
aI0
aa(lp7876
I14
aI1
aI0
aa(lp7877
I9
aI5
aI1
aa(lp7878
I6
aI0
aI0
aa(lp7879
I18
aI1
aI0
aa(lp7880
I7
aI0
aI0
aa(lp7881
I21
aI5
aI0
aa(lp7882
I0
aI0
aI0
aa(lp7883
I0
aI0
aI0
aa(lp7884
I0
aI0
aI0
aa(lp7885
I16
aI7
aI1
aa(lp7886
I8
aI4
aI1
aa(lp7887
I41
aI4
aI0
aa(lp7888
I17
aI4
aI0
aa(lp7889
I22
aI5
aI0
aa(lp7890
I49
aI0
aI0
aa(lp7891
I13
aI5
aI0
aa(lp7892
I24
aI0
aI0
aa(lp7893
I42
aI7
aI0
aa(lp7894
I0
aI0
aI0
aa(lp7895
I0
aI0
aI0
aa(lp7896
I25
aI0
aI0
aa(lp7897
I3
aI0
aI0
aa(lp7898
I32
aI11
aI0
aa(lp7899
I27
aI6
aI0
aa(lp7900
I7
aI1
aI0
aa(lp7901
I0
aI0
aI0
aa(lp7902
I15
aI3
aI0
aa(lp7903
I0
aI0
aI0
aa(lp7904
I2
aI0
aI0
aa(lp7905
I1
aI0
aI0
aa(lp7906
I1
aI0
aI0
aa(lp7907
I16
aI8
aI1
aa(lp7908
I10
aI2
aI1
aa(lp7909
I22
aI11
aI1
aa(lp7910
I0
aI0
aI0
aa(lp7911
I42
aI4
aI0
aa(lp7912
I8
aI5
aI0
aa(lp7913
I9
aI2
aI0
aa(lp7914
I30
aI0
aI0
aa(lp7915
I6
aI0
aI0
aa(lp7916
I22
aI2
aI0
aa(lp7917
I2
aI0
aI0
aa(lp7918
I8
aI1
aI0
aa(lp7919
I28
aI5
aI0
aa(lp7920
I33
aI11
aI0
aa(lp7921
I2
aI0
aI0
aa(lp7922
I1
aI0
aI0
aa(lp7923
I3
aI0
aI0
aa(lp7924
I40
aI12
aI0
aa(lp7925
I2
aI1
aI1
aa(lp7926
I34
aI3
aI0
aa(lp7927
I0
aI0
aI0
aa(lp7928
I8
aI2
aI1
aa(lp7929
I16
aI3
aI0
aa(lp7930
I7
aI1
aI0
aa(lp7931
I0
aI0
aI0
aa(lp7932
I9
aI0
aI0
aa(lp7933
I1
aI0
aI0
aa(lp7934
I0
aI0
aI0
aa(lp7935
I0
aI0
aI0
aa(lp7936
I11
aI7
aI1
aa(lp7937
I43
aI1
aI0
aa(lp7938
I25
aI2
aI0
aa(lp7939
I23
aI8
aI1
aa(lp7940
I18
aI1
aI0
aa(lp7941
I0
aI0
aI0
aa(lp7942
I7
aI3
aI1
aa(lp7943
I0
aI0
aI0
aa(lp7944
I43
aI7
aI0
aa(lp7945
I12
aI2
aI1
aa(lp7946
I37
aI0
aI0
aa(lp7947
I41
aI12
aI0
aa(lp7948
I21
aI0
aI0
aa(lp7949
I26
aI3
aI0
aa(lp7950
I17
aI2
aI1
aa(lp7951
I0
aI0
aI0
aa(lp7952
I22
aI4
aI0
aa(lp7953
I26
aI0
aI0
aa(lp7954
I8
aI3
aI1
aa(lp7955
I9
aI0
aI0
aa(lp7956
I13
aI7
aI1
aa(lp7957
I17
aI8
aI1
aa(lp7958
I10
aI1
aI0
aa(lp7959
I8
aI0
aI0
aa(lp7960
I33
aI0
aI0
aa(lp7961
I8
aI1
aI1
aa(lp7962
I13
aI0
aI0
aa(lp7963
I8
aI1
aI0
aa(lp7964
I0
aI0
aI0
aa(lp7965
I13
aI3
aI0
aa(lp7966
I0
aI0
aI0
aa(lp7967
I0
aI0
aI0
aa(lp7968
I0
aI0
aI0
aa(lp7969
I5
aI0
aI0
aa(lp7970
I1
aI0
aI0
aa(lp7971
I17
aI2
aI0
aa(lp7972
I11
aI5
aI1
aa(lp7973
I1
aI0
aI0
aa(lp7974
I16
aI2
aI0
aa(lp7975
I9
aI0
aI0
aa(lp7976
I6
aI1
aI0
aa(lp7977
I0
aI0
aI0
aa(lp7978
I6
aI0
aI0
aa(lp7979
I7
aI1
aI0
aa(lp7980
I11
aI0
aI0
aa(lp7981
I32
aI12
aI1
aa(lp7982
I13
aI1
aI1
aa(lp7983
I9
aI2
aI1
aa(lp7984
I19
aI5
aI1
aa(lp7985
I4
aI0
aI0
aa(lp7986
I20
aI5
aI0
aa(lp7987
I21
aI17
aI1
aa(lp7988
I28
aI8
aI0
aa(lp7989
I14
aI6
aI0
aa(lp7990
I0
aI0
aI0
aa(lp7991
I27
aI3
aI0
aa(lp7992
I1
aI0
aI0
aa(lp7993
I31
aI4
aI0
aa(lp7994
I1
aI0
aI0
aa(lp7995
I9
aI0
aI0
aa(lp7996
I5
aI1
aI0
aa(lp7997
I0
aI0
aI0
aa(lp7998
I4
aI0
aI0
aa(lp7999
I4
aI3
aI0
aa(lp8000
I0
aI0
aI0
aa(lp8001
I14
aI0
aI0
aa(lp8002
I8
aI1
aI0
aa(lp8003
I7
aI0
aI0
aa(lp8004
I29
aI5
aI0
aa(lp8005
I38
aI17
aI0
aa(lp8006
I43
aI4
aI0
aa(lp8007
I28
aI7
aI1
aa(lp8008
I23
aI4
aI0
aa(lp8009
I36
aI14
aI0
aa(lp8010
I11
aI1
aI0
aa(lp8011
I5
aI4
aI1
aa(lp8012
I10
aI0
aI0
aa(lp8013
I9
aI0
aI0
aa(lp8014
I19
aI0
aI0
aa(lp8015
I33
aI14
aI0
aa(lp8016
I5
aI1
aI0
aa(lp8017
I1
aI0
aI0
aa(lp8018
I6
aI0
aI0
aa(lp8019
I3
aI0
aI0
aa(lp8020
I39
aI17
aI0
aa(lp8021
I2
aI1
aI1
aa(lp8022
I13
aI1
aI0
aa(lp8023
I6
aI0
aI0
aa(lp8024
I21
aI0
aI0
aa(lp8025
I24
aI12
aI1
aa(lp8026
I2
aI0
aI0
aa(lp8027
I19
aI1
aI0
aa(lp8028
I1
aI0
aI0
aa(lp8029
I1
aI0
aI0
aa(lp8030
I0
aI0
aI0
aa(lp8031
I13
aI2
aI0
aa(lp8032
I25
aI13
aI1
aa(lp8033
I6
aI5
aI1
aa(lp8034
I0
aI0
aI0
aa(lp8035
I10
aI3
aI0
aa(lp8036
I42
aI4
aI0
aa(lp8037
I16
aI0
aI0
aa(lp8038
I34
aI12
aI1
aa(lp8039
I34
aI0
aI0
aa(lp8040
I35
aI3
aI0
aa(lp8041
I29
aI8
aI1
aa(lp8042
I4
aI3
aI1
aa(lp8043
I6
aI5
aI1
aa(lp8044
I26
aI6
aI0
aa(lp8045
I44
aI1
aI0
aa(lp8046
I0
aI0
aI0
aa(lp8047
I0
aI0
aI0
aa(lp8048
I2
aI0
aI0
aa(lp8049
I13
aI1
aI0
aa(lp8050
I14
aI4
aI0
aa(lp8051
I27
aI7
aI1
aa(lp8052
I43
aI4
aI0
aa(lp8053
I12
aI2
aI0
aa(lp8054
I28
aI3
aI0
aa(lp8055
I11
aI0
aI0
aa(lp8056
I0
aI0
aI0
aa(lp8057
I1
aI0
aI0
aa(lp8058
I18
aI4
aI0
aa(lp8059
I8
aI0
aI0
aa(lp8060
I0
aI0
aI0
aa(lp8061
I1
aI0
aI0
aa(lp8062
I0
aI0
aI0
aa(lp8063
I2
aI0
aI0
aa(lp8064
I5
aI1
aI0
aa(lp8065
I0
aI0
aI0
aa(lp8066
I0
aI0
aI0
aa(lp8067
I0
aI0
aI0
aa(lp8068
I5
aI1
aI0
aa(lp8069
I0
aI0
aI0
aa(lp8070
I11
aI0
aI0
aa(lp8071
I0
aI0
aI0
aa(lp8072
I0
aI0
aI0
aa(lp8073
I8
aI5
aI1
aa(lp8074
I0
aI0
aI0
aa(lp8075
I0
aI0
aI0
aa(lp8076
I4
aI0
aI0
aa(lp8077
I14
aI1
aI0
aa(lp8078
I3
aI1
aI1
aa(lp8079
I50
aI0
aI0
aa(lp8080
I7
aI7
aI1
aa(lp8081
I9
aI0
aI0
aa(lp8082
I4
aI0
aI0
aa(lp8083
I0
aI0
aI0
aa(lp8084
I0
aI0
aI0
aa(lp8085
I0
aI0
aI0
aa(lp8086
I0
aI0
aI0
aa(lp8087
I0
aI0
aI0
aa(lp8088
I0
aI0
aI0
aa(lp8089
I0
aI0
aI0
aa(lp8090
I2
aI2
aI1
aa(lp8091
I10
aI1
aI1
aa(lp8092
I35
aI12
aI0
aa(lp8093
I24
aI16
aI0
aa(lp8094
I9
aI2
aI1
aa(lp8095
I17
aI9
aI1
aa(lp8096
I4
aI0
aI0
aa(lp8097
I28
aI7
aI1
aa(lp8098
I0
aI0
aI0
aa(lp8099
I0
aI0
aI0
aa(lp8100
I42
aI12
aI0
aa(lp8101
I15
aI6
aI1
aa(lp8102
I0
aI0
aI0
aa(lp8103
I8
aI4
aI0
aa(lp8104
I6
aI0
aI0
aa(lp8105
I21
aI5
aI0
aa(lp8106
I10
aI1
aI0
aa(lp8107
I4
aI1
aI0
aa(lp8108
I4
aI1
aI0
aa(lp8109
I1
aI0
aI0
aa(lp8110
I24
aI7
aI0
aa(lp8111
I3
aI0
aI0
aa(lp8112
I10
aI0
aI0
aa(lp8113
I1
aI0
aI0
aa(lp8114
I4
aI0
aI0
aa(lp8115
I29
aI7
aI0
aa(lp8116
I23
aI1
aI0
aa(lp8117
I18
aI10
aI1
aa(lp8118
I28
aI6
aI0
aa(lp8119
I4
aI1
aI0
aa(lp8120
I10
aI0
aI0
aa(lp8121
I13
aI7
aI1
aa(lp8122
I11
aI8
aI1
aa(lp8123
I4
aI0
aI0
aa(lp8124
I6
aI0
aI0
aa(lp8125
I38
aI0
aI0
aa(lp8126
I30
aI9
aI1
aa(lp8127
I0
aI0
aI0
aa(lp8128
I0
aI0
aI0
aa(lp8129
I1
aI0
aI0
aa(lp8130
I33
aI12
aI0
aa(lp8131
I19
aI6
aI0
aa(lp8132
I29
aI4
aI1
aa(lp8133
I31
aI10
aI1
aa(lp8134
I9
aI0
aI0
aa(lp8135
I10
aI7
aI1
aa(lp8136
I1
aI0
aI0
aa(lp8137
I23
aI2
aI0
aa(lp8138
I3
aI1
aI1
aa(lp8139
I1
aI0
aI0
aa(lp8140
I2
aI0
aI0
aa(lp8141
I22
aI3
aI0
aa(lp8142
I17
aI1
aI0
aa(lp8143
I12
aI0
aI0
aa(lp8144
I22
aI1
aI0
aa(lp8145
I0
aI0
aI0
aa(lp8146
I1
aI0
aI0
aa(lp8147
I42
aI2
aI0
aa(lp8148
I7
aI0
aI0
aa(lp8149
I19
aI7
aI1
aa(lp8150
I2
aI0
aI0
aa(lp8151
I27
aI8
aI1
aa(lp8152
I1
aI1
aI1
aa(lp8153
I20
aI6
aI0
aa(lp8154
I18
aI4
aI0
aa(lp8155
I14
aI1
aI0
aa(lp8156
I10
aI4
aI0
aa(lp8157
I10
aI3
aI1
aa(lp8158
I30
aI8
aI1
aa(lp8159
I12
aI0
aI0
aa(lp8160
I3
aI0
aI0
aa(lp8161
I0
aI0
aI0
aa(lp8162
I0
aI0
aI0
aa(lp8163
I10
aI0
aI0
aa(lp8164
I39
aI0
aI0
aa(lp8165
I27
aI0
aI0
aa(lp8166
I7
aI6
aI1
aa(lp8167
I16
aI14
aI1
aa(lp8168
I43
aI2
aI0
aa(lp8169
I0
aI0
aI0
aa(lp8170
I0
aI0
aI0
aa(lp8171
I7
aI1
aI0
aa(lp8172
I6
aI0
aI0
aa(lp8173
I6
aI0
aI0
aa(lp8174
I14
aI1
aI0
aa(lp8175
I19
aI10
aI1
aa(lp8176
I21
aI0
aI0
aa(lp8177
I14
aI2
aI1
aa(lp8178
I1
aI0
aI0
aa(lp8179
I22
aI11
aI1
aa(lp8180
I11
aI2
aI0
aa(lp8181
I9
aI6
aI1
aa(lp8182
I25
aI7
aI0
aa(lp8183
I34
aI14
aI0
aa(lp8184
I20
aI8
aI1
aa(lp8185
I23
aI14
aI1
aa(lp8186
I24
aI8
aI0
aa(lp8187
I2
aI0
aI0
aa(lp8188
I5
aI0
aI0
aa(lp8189
I6
aI1
aI0
aa(lp8190
I11
aI3
aI0
aa(lp8191
I8
aI1
aI1
aa(lp8192
I24
aI1
aI0
aa(lp8193
I6
aI4
aI0
aa(lp8194
I5
aI1
aI0
aa(lp8195
I20
aI0
aI0
aa(lp8196
I18
aI2
aI0
aa(lp8197
I14
aI0
aI0
aa(lp8198
I7
aI0
aI0
aa(lp8199
I1
aI0
aI0
aa(lp8200
I0
aI0
aI0
aa(lp8201
I6
aI0
aI0
aa(lp8202
I19
aI4
aI0
aa(lp8203
I7
aI0
aI0
aa(lp8204
I30
aI4
aI0
aa(lp8205
I2
aI0
aI0
aa(lp8206
I2
aI0
aI0
aa(lp8207
I0
aI0
aI0
aa(lp8208
I0
aI0
aI0
aa(lp8209
I0
aI0
aI0
aa(lp8210
I0
aI0
aI0
aa(lp8211
I19
aI15
aI1
aa(lp8212
I31
aI0
aI0
aa(lp8213
I19
aI2
aI0
aa(lp8214
I4
aI0
aI0
aa(lp8215
I22
aI0
aI0
aa(lp8216
I2
aI1
aI1
aa(lp8217
I2
aI0
aI0
aa(lp8218
I9
aI1
aI0
aa(lp8219
I29
aI6
aI0
aa(lp8220
I44
aI4
aI0
aa(lp8221
I26
aI14
aI1
aa(lp8222
I20
aI0
aI0
aa(lp8223
I13
aI0
aI0
aa(lp8224
I0
aI0
aI0
aa(lp8225
I0
aI0
aI0
aa(lp8226
I0
aI0
aI0
aa(lp8227
I21
aI6
aI0
aa(lp8228
I0
aI0
aI0
aa(lp8229
I13
aI3
aI0
aa(lp8230
I33
aI1
aI0
aa(lp8231
I19
aI14
aI1
aa(lp8232
I19
aI1
aI0
aa(lp8233
I36
aI12
aI0
aa(lp8234
I25
aI21
aI1
aa(lp8235
I20
aI16
aI1
aa(lp8236
I2
aI1
aI0
aa(lp8237
I0
aI0
aI0
aa(lp8238
I0
aI0
aI0
aa(lp8239
I4
aI2
aI1
aa(lp8240
I2
aI2
aI1
aa(lp8241
I1
aI0
aI0
aa(lp8242
I0
aI0
aI0
aa(lp8243
I21
aI0
aI0
aa(lp8244
I12
aI0
aI0
aa(lp8245
I10
aI3
aI1
aa(lp8246
I0
aI0
aI0
aa(lp8247
I2
aI0
aI0
aa(lp8248
I0
aI0
aI0
aa(lp8249
I22
aI18
aI1
aa(lp8250
I17
aI11
aI1
aa(lp8251
I14
aI0
aI0
aa(lp8252
I0
aI0
aI0
aa(lp8253
I23
aI19
aI1
aa(lp8254
I5
aI1
aI0
aa(lp8255
I0
aI0
aI0
aa(lp8256
I0
aI0
aI0
aa(lp8257
I37
aI14
aI0
aa(lp8258
I35
aI3
aI0
aa(lp8259
I14
aI4
aI1
aa(lp8260
I6
aI1
aI0
aa(lp8261
I11
aI1
aI0
aa(lp8262
I17
aI2
aI0
aa(lp8263
I14
aI7
aI0
aa(lp8264
I10
aI6
aI1
aa(lp8265
I9
aI3
aI1
aa(lp8266
I4
aI0
aI0
aa(lp8267
I9
aI0
aI0
aa(lp8268
I3
aI0
aI0
aa(lp8269
I17
aI1
aI0
aa(lp8270
I34
aI12
aI0
aa(lp8271
I11
aI7
aI0
aa(lp8272
I16
aI3
aI0
aa(lp8273
I16
aI1
aI0
aa(lp8274
I10
aI6
aI1
aa(lp8275
I11
aI0
aI0
aa(lp8276
I23
aI4
aI1
aa(lp8277
I45
aI1
aI0
aa(lp8278
I15
aI0
aI0
aa(lp8279
I35
aI0
aI0
aa(lp8280
I45
aI4
aI0
aa(lp8281
I14
aI0
aI0
aa(lp8282
I8
aI0
aI0
aa(lp8283
I10
aI0
aI0
aa(lp8284
I18
aI1
aI0
aa(lp8285
I22
aI6
aI0
aa(lp8286
I0
aI0
aI0
aa(lp8287
I0
aI0
aI0
aa(lp8288
I0
aI0
aI0
aa(lp8289
I12
aI0
aI0
aa(lp8290
I26
aI22
aI1
aa(lp8291
I20
aI1
aI0
aa(lp8292
I1
aI1
aI1
aa(lp8293
I5
aI0
aI0
aa(lp8294
I1
aI0
aI0
aa(lp8295
I11
aI1
aI0
aa(lp8296
I6
aI3
aI1
aa(lp8297
I35
aI13
aI1
aa(lp8298
I46
aI1
aI0
aa(lp8299
I1
aI0
aI0
aa(lp8300
I2
aI0
aI0
aa(lp8301
I6
aI0
aI0
aa(lp8302
I0
aI0
aI0
aa(lp8303
I11
aI0
aI0
aa(lp8304
I10
aI7
aI1
aa(lp8305
I4
aI1
aI0
aa(lp8306
I15
aI1
aI0
aa(lp8307
I2
aI2
aI1
aa(lp8308
I2
aI1
aI1
aa(lp8309
I44
aI7
aI0
aa(lp8310
I32
aI4
aI0
aa(lp8311
I40
aI17
aI0
aa(lp8312
I47
aI1
aI0
aa(lp8313
I14
aI1
aI0
aa(lp8314
I22
aI5
aI0
aa(lp8315
I29
aI2
aI0
aa(lp8316
I23
aI2
aI0
aa(lp8317
I15
aI1
aI0
aa(lp8318
I2
aI0
aI0
aa(lp8319
I26
aI16
aI1
aa(lp8320
I38
aI15
aI1
aa(lp8321
I2
aI0
aI0
aa(lp8322
I43
aI13
aI1
aa(lp8323
I15
aI2
aI0
aa(lp8324
I1
aI0
aI0
aa(lp8325
I12
aI1
aI0
aa(lp8326
I1
aI0
aI0
aa(lp8327
I20
aI4
aI0
aa(lp8328
I4
aI0
aI0
aa(lp8329
I18
aI2
aI0
aa(lp8330
I27
aI14
aI0
aa(lp8331
I25
aI0
aI0
aa(lp8332
I33
aI4
aI0
aa(lp8333
I28
aI7
aI0
aa(lp8334
I44
aI4
aI0
aa(lp8335
I28
aI0
aI0
aa(lp8336
I12
aI8
aI0
aa(lp8337
I5
aI0
aI0
aa(lp8338
I45
aI4
aI0
aa(lp8339
I20
aI2
aI0
aa(lp8340
I45
aI7
aI0
aa(lp8341
I1
aI0
aI0
aa(lp8342
I11
aI0
aI0
aa(lp8343
I11
aI1
aI0
aa(lp8344
I7
aI5
aI1
aa(lp8345
I29
aI0
aI0
aa(lp8346
I23
aI5
aI0
aa(lp8347
I1
aI0
aI0
aa(lp8348
I2
aI2
aI1
aa(lp8349
I24
aI5
aI1
aa(lp8350
I15
aI8
aI1
aa(lp8351
I8
aI5
aI0
aa(lp8352
I15
aI5
aI1
aa(lp8353
I10
aI0
aI0
aa(lp8354
I36
aI3
aI0
aa(lp8355
I37
aI13
aI1
aa(lp8356
I23
aI2
aI1
aa(lp8357
I12
aI7
aI0
aa(lp8358
I15
aI4
aI0
aa(lp8359
I27
aI16
aI0
aa(lp8360
I11
aI0
aI0
aa(lp8361
I30
aI2
aI0
aa(lp8362
I46
aI4
aI0
aa(lp8363
I30
aI0
aI0
aa(lp8364
I2
aI2
aI1
aa(lp8365
I23
aI0
aI0
aa(lp8366
I4
aI1
aI1
aa(lp8367
I0
aI0
aI0
aa(lp8368
I12
aI9
aI1
aa(lp8369
I9
aI3
aI0
aa(lp8370
I51
aI0
aI0
aa(lp8371
I5
aI0
aI0
aa(lp8372
I1
aI0
aI0
aa(lp8373
I13
aI8
aI0
aa(lp8374
I5
aI2
aI1
aa(lp8375
I46
aI4
aI0
aa(lp8376
I12
aI1
aI0
aa(lp8377
I36
aI0
aI0
aa(lp8378
I11
aI4
aI1
aa(lp8379
I0
aI0
aI0
aa(lp8380
I0
aI0
aI0
aa(lp8381
I3
aI0
aI0
aa(lp8382
I0
aI0
aI0
aa(lp8383
I1
aI0
aI0
aa(lp8384
I0
aI0
aI0
aa(lp8385
I1
aI1
aI1
aa(lp8386
I19
aI1
aI0
aa(lp8387
I0
aI0
aI0
aa(lp8388
I4
aI0
aI0
aa(lp8389
I0
aI0
aI0
aa(lp8390
I0
aI0
aI0
aa(lp8391
I0
aI0
aI0
aa(lp8392
I1
aI1
aI1
aa(lp8393
I0
aI0
aI0
aa(lp8394
I0
aI0
aI0
aa(lp8395
I0
aI0
aI0
aa(lp8396
I0
aI0
aI0
aa(lp8397
I0
aI0
aI0
aa(lp8398
I0
aI0
aI0
aa(lp8399
I0
aI0
aI0
aa(lp8400
I0
aI0
aI0
aa(lp8401
I0
aI0
aI0
aa(lp8402
I0
aI0
aI0
aa(lp8403
I6
aI0
aI0
aa(lp8404
I8
aI1
aI0
aa(lp8405
I2
aI0
aI0
aa(lp8406
I8
aI0
aI0
aa(lp8407
I0
aI0
aI0
aa(lp8408
I1
aI0
aI0
aa(lp8409
I10
aI2
aI1
aa(lp8410
I0
aI0
aI0
aa(lp8411
I1
aI0
aI0
aa(lp8412
I1
aI0
aI0
aa(lp8413
I0
aI0
aI0
aa(lp8414
I1
aI0
aI0
aa(lp8415
I2
aI0
aI0
aa(lp8416
I44
aI2
aI0
aa(lp8417
I5
aI3
aI0
aa(lp8418
I1
aI0
aI0
aa(lp8419
I13
aI1
aI0
aa(lp8420
I6
aI1
aI0
aa(lp8421
I1
aI0
aI0
aa(lp8422
I3
aI1
aI0
aa(lp8423
I52
aI0
aI0
aa(lp8424
I35
aI14
aI0
aa(lp8425
I7
aI5
aI1
aa(lp8426
I25
aI8
aI0
aa(lp8427
I21
aI9
aI1
aa(lp8428
I13
aI1
aI0
aa(lp8429
I37
aI3
aI0
aa(lp8430
I22
aI0
aI0
aa(lp8431
I14
aI0
aI0
aa(lp8432
I1
aI0
aI0
aa(lp8433
I40
aI0
aI0
aa(lp8434
I6
aI2
aI0
aa(lp8435
I7
aI2
aI0
aa(lp8436
I10
aI0
aI0
aa(lp8437
I14
aI3
aI0
aa(lp8438
I18
aI1
aI0
aa(lp8439
I14
aI1
aI0
aa(lp8440
I1
aI0
aI0
aa(lp8441
I1
aI0
aI0
aa(lp8442
I3
aI1
aI1
aa(lp8443
I2
aI0
aI0
aa(lp8444
I13
aI1
aI0
aa(lp8445
I11
aI6
aI0
aa(lp8446
I19
aI10
aI0
aa(lp8447
I15
aI0
aI0
aa(lp8448
I4
aI1
aI0
aa(lp8449
I11
aI4
aI1
aa(lp8450
I15
aI2
aI0
aa(lp8451
I31
aI0
aI0
aa(lp8452
I8
aI2
aI0
aa(lp8453
I6
aI1
aI0
aa(lp8454
I34
aI4
aI0
aa(lp8455
I3
aI3
aI1
aa(lp8456
I10
aI2
aI0
aa(lp8457
I7
aI6
aI1
aa(lp8458
I1
aI0
aI0
aa(lp8459
I9
aI1
aI0
aa(lp8460
I16
aI2
aI0
aa(lp8461
I53
aI0
aI0
aa(lp8462
I26
aI8
aI0
aa(lp8463
I14
aI8
aI0
aa(lp8464
I1
aI0
aI0
aa(lp8465
I24
aI4
aI0
aa(lp8466
I6
aI0
aI0
aa(lp8467
I24
aI5
aI0
aa(lp8468
I15
aI1
aI0
aa(lp8469
I17
aI1
aI0
aa(lp8470
I15
aI2
aI0
aa(lp8471
I9
aI1
aI0
aa(lp8472
I12
aI2
aI0
aa(lp8473
I31
aI8
aI0
aa(lp8474
I1
aI0
aI0
aa(lp8475
I0
aI0
aI0
aa(lp8476
I1
aI0
aI0
aa(lp8477
I0
aI0
aI0
aa(lp8478
I5
aI0
aI0
aa(lp8479
I6
aI2
aI1
aa(lp8480
I23
aI5
aI0
aa(lp8481
I20
aI2
aI1
aa(lp8482
I19
aI2
aI0
aa(lp8483
I1
aI0
aI0
aa(lp8484
I26
aI2
aI0
aa(lp8485
I1
aI0
aI0
aa(lp8486
I1
aI0
aI0
aa(lp8487
I47
aI4
aI0
aa(lp8488
I0
aI0
aI0
aa(lp8489
I6
aI2
aI1
aa(lp8490
I21
aI1
aI0
aa(lp8491
I13
aI0
aI0
aa(lp8492
I20
aI15
aI1
aa(lp8493
I0
aI0
aI0
aa(lp8494
I1
aI0
aI0
aa(lp8495
I26
aI8
aI1
aa(lp8496
I0
aI0
aI0
aa(lp8497
I32
aI8
aI0
aa(lp8498
I15
aI1
aI0
aa(lp8499
I19
aI1
aI0
aa(lp8500
I7
aI0
aI0
aa(lp8501
I8
aI3
aI0
aa(lp8502
I0
aI0
aI0
aa(lp8503
I15
aI0
aI0
aa(lp8504
I13
aI4
aI0
aa(lp8505
I3
aI0
aI0
aa(lp8506
I1
aI0
aI0
aa(lp8507
I1
aI1
aI1
aa(lp8508
I11
aI7
aI1
aa(lp8509
I2
aI0
aI0
aa(lp8510
I11
aI4
aI0
aa(lp8511
I7
aI1
aI0
aa(lp8512
I8
aI0
aI0
aa(lp8513
I4
aI0
aI0
aa(lp8514
I0
aI0
aI0
aa(lp8515
I27
aI8
aI0
aa(lp8516
I11
aI0
aI0
aa(lp8517
I17
aI1
aI0
aa(lp8518
I11
aI1
aI0
aa(lp8519
I13
aI3
aI0
aa(lp8520
I7
aI0
aI0
aa(lp8521
I46
aI7
aI0
aa(lp8522
I24
aI2
aI0
aa(lp8523
I22
aI1
aI0
aa(lp8524
I2
aI0
aI0
aa(lp8525
I3
aI0
aI0
aa(lp8526
I4
aI0
aI0
aa(lp8527
I1
aI1
aI1
aa(lp8528
I0
aI0
aI0
aa(lp8529
I27
aI23
aI1
aa(lp8530
I8
aI7
aI1
aa(lp8531
I28
aI15
aI1
aa(lp8532
I0
aI0
aI0
aa(lp8533
I4
aI0
aI0
aa(lp8534
I2
aI0
aI0
aa(lp8535
I29
aI7
aI0
aa(lp8536
I37
aI0
aI0
aa(lp8537
I47
aI7
aI0
aa(lp8538
I35
aI4
aI0
aa(lp8539
I17
aI3
aI0
aa(lp8540
I44
aI14
aI1
aa(lp8541
I45
aI14
aI0
aa(lp8542
I13
aI3
aI1
aa(lp8543
I0
aI0
aI0
aa(lp8544
I0
aI0
aI0
aa(lp8545
I1
aI0
aI0
aa(lp8546
I2
aI0
aI0
aa(lp8547
I3
aI0
aI0
aa(lp8548
I2
aI0
aI0
aa(lp8549
I1
aI0
aI0
aa(lp8550
I47
aI4
aI0
aa(lp8551
I0
aI0
aI0
aa(lp8552
I0
aI0
aI0
aa(lp8553
I0
aI0
aI0
aa(lp8554
I1
aI0
aI0
aa(lp8555
I0
aI0
aI0
aa(lp8556
I0
aI0
aI0
aa(lp8557
I38
aI0
aI0
aa(lp8558
I19
aI1
aI0
aa(lp8559
I0
aI0
aI0
aa(lp8560
I36
aI14
aI0
aa(lp8561
I17
aI0
aI0
aa(lp8562
I16
aI6
aI1
aa(lp8563
I5
aI0
aI0
aa(lp8564
I2
aI0
aI0
aa(lp8565
I2
aI1
aI1
aa(lp8566
I3
aI0
aI0
aa(lp8567
I32
aI0
aI0
aa(lp8568
I13
aI11
aI0
aa(lp8569
I3
aI1
aI0
aa(lp8570
I2
aI0
aI0
aa(lp8571
I32
aI0
aI0
aa(lp8572
I7
aI2
aI0
aa(lp8573
I0
aI0
aI0
aa(lp8574
I24
aI14
aI0
aa(lp8575
I12
aI0
aI0
aa(lp8576
I1
aI0
aI0
aa(lp8577
I0
aI0
aI0
aa(lp8578
I54
aI0
aI0
aa(lp8579
I0
aI0
aI0
aa(lp8580
I2
aI0
aI0
aa(lp8581
I25
aI5
aI0
aa(lp8582
I6
aI1
aI0
aa(lp8583
I0
aI0
aI0
aa(lp8584
I6
aI0
aI0
aa(lp8585
I33
aI0
aI0
aa(lp8586
I11
aI0
aI0
aa(lp8587
I45
aI2
aI0
aa(lp8588
I1
aI0
aI0
aa(lp8589
I36
aI3
aI0
aa(lp8590
I9
aI2
aI0
aa(lp8591
I41
aI17
aI0
aa(lp8592
I48
aI4
aI0
aa(lp8593
I7
aI0
aI0
aa(lp8594
I2
aI0
aI0
aa(lp8595
I3
aI3
aI1
aa(lp8596
I2
aI1
aI1
aa(lp8597
I0
aI0
aI0
aa(lp8598
I2
aI2
aI1
aa(lp8599
I2
aI0
aI0
aa(lp8600
I16
aI0
aI0
aa(lp8601
I12
aI3
aI1
aa(lp8602
I0
aI0
aI0
aa(lp8603
I0
aI0
aI0
aa(lp8604
I2
aI0
aI0
aa(lp8605
I15
aI1
aI0
aa(lp8606
I34
aI1
aI0
aa(lp8607
I16
aI8
aI0
aa(lp8608
I41
aI0
aI0
aa(lp8609
I15
aI8
aI0
aa(lp8610
I28
aI24
aI1
aa(lp8611
I3
aI0
aI0
aa(lp8612
I0
aI0
aI0
aa(lp8613
I0
aI0
aI0
aa(lp8614
I10
aI1
aI0
aa(lp8615
I14
aI2
aI0
aa(lp8616
I0
aI0
aI0
aa(lp8617
I10
aI2
aI0
aa(lp8618
I4
aI1
aI0
aa(lp8619
I0
aI0
aI0
aa(lp8620
I10
aI1
aI0
aa(lp8621
I1
aI0
aI0
aa(lp8622
I6
aI1
aI0
aa(lp8623
I1
aI0
aI0
aa(lp8624
I1
aI0
aI0
aa(lp8625
I1
aI0
aI0
aa(lp8626
I20
aI2
aI0
aa(lp8627
I0
aI0
aI0
aa(lp8628
I0
aI0
aI0
aa(lp8629
I18
aI0
aI0
aa(lp8630
I25
aI4
aI0
aa(lp8631
I2
aI1
aI0
aa(lp8632
I31
aI4
aI0
aa(lp8633
I1
aI0
aI0
aa(lp8634
I0
aI0
aI0
aa(lp8635
I3
aI0
aI0
aa(lp8636
I21
aI2
aI0
aa(lp8637
I29
aI8
aI0
aa(lp8638
I4
aI0
aI0
aa(lp8639
I12
aI0
aI0
aa(lp8640
I23
aI0
aI0
aa(lp8641
I48
aI7
aI0
aa(lp8642
I3
aI0
aI0
aa(lp8643
I13
aI10
aI1
aa(lp8644
I19
aI11
aI1
aa(lp8645
I23
aI11
aI0
aa(lp8646
I12
aI0
aI0
aa(lp8647
I7
aI0
aI0
aa(lp8648
I3
aI1
aI0
aa(lp8649
I46
aI14
aI0
aa(lp8650
I18
aI5
aI1
aa(lp8651
I1
aI0
aI0
aa(lp8652
I21
aI2
aI0
aa(lp8653
I14
aI3
aI0
aa(lp8654
I0
aI0
aI0
aa(lp8655
I31
aI2
aI0
aa(lp8656
I4
aI0
aI0
aa(lp8657
I1
aI0
aI0
aa(lp8658
I7
aI0
aI0
aa(lp8659
I36
aI4
aI0
aa(lp8660
I27
aI8
aI0
aa(lp8661
I13
aI2
aI0
aa(lp8662
I15
aI6
aI0
aa(lp8663
I14
aI2
aI0
aa(lp8664
I0
aI0
aI0
aa(lp8665
I11
aI1
aI0
aa(lp8666
I0
aI0
aI0
aa(lp8667
I12
aI6
aI0
aa(lp8668
I12
aI0
aI0
aa(lp8669
I42
aI17
aI0
aa(lp8670
I9
aI5
aI0
aa(lp8671
I17
aI9
aI1
aa(lp8672
I25
aI16
aI0
aa(lp8673
I19
aI4
aI0
aa(lp8674
I2
aI1
aI1
aa(lp8675
I5
aI3
aI1
aa(lp8676
I12
aI5
aI1
aa(lp8677
I0
aI0
aI0
aa(lp8678
I1
aI0
aI0
aa(lp8679
I23
aI1
aI0
aa(lp8680
I0
aI0
aI0
aa(lp8681
I28
aI9
aI1
aa(lp8682
I17
aI7
aI1
aa(lp8683
I8
aI0
aI0
aa(lp8684
I9
aI0
aI0
aa(lp8685
I1
aI0
aI0
aa(lp8686
I4
aI0
aI0
aa(lp8687
I28
aI8
aI0
aa(lp8688
I9
aI0
aI0
aa(lp8689
I5
aI0
aI0
aa(lp8690
I14
aI0
aI0
aa(lp8691
I25
aI1
aI0
aa(lp8692
I36
aI13
aI0
aa(lp8693
I13
aI0
aI0
aa(lp8694
I32
aI4
aI0
aa(lp8695
I39
aI0
aI0
aa(lp8696
I10
aI0
aI0
aa(lp8697
I16
aI8
aI0
aa(lp8698
I49
aI4
aI0
aa(lp8699
I8
aI0
aI0
aa(lp8700
I38
aI14
aI1
aa(lp8701
I0
aI0
aI0
aa(lp8702
I1
aI0
aI0
aa(lp8703
I7
aI3
aI1
aa(lp8704
I12
aI2
aI0
aa(lp8705
I3
aI2
aI1
aa(lp8706
I18
aI2
aI0
aa(lp8707
I14
aI0
aI0
aa(lp8708
I5
aI3
aI0
aa(lp8709
I14
aI4
aI1
aa(lp8710
I3
aI1
aI1
aa(lp8711
I1
aI0
aI0
aa(lp8712
I4
aI1
aI0
aa(lp8713
I3
aI1
aI0
aa(lp8714
I4
aI0
aI0
aa(lp8715
I0
aI0
aI0
aa(lp8716
I1
aI0
aI0
aa(lp8717
I2
aI0
aI0
aa(lp8718
I10
aI2
aI0
aa(lp8719
I37
aI4
aI0
aa(lp8720
I18
aI7
aI0
aa(lp8721
I34
aI0
aI0
aa(lp8722
I11
aI2
aI0
aa(lp8723
I1
aI0
aI0
aa(lp8724
I13
aI0
aI0
aa(lp8725
I21
aI2
aI0
aa(lp8726
I12
aI8
aI1
aa(lp8727
I20
aI1
aI0
aa(lp8728
I35
aI1
aI0
aa(lp8729
I11
aI2
aI0
aa(lp8730
I6
aI3
aI0
aa(lp8731
I12
aI1
aI0
aa(lp8732
I9
aI0
aI0
aa(lp8733
I33
aI0
aI0
aa(lp8734
I3
aI0
aI0
aa(lp8735
I11
aI2
aI0
aa(lp8736
I40
aI0
aI0
aa(lp8737
I10
aI5
aI0
aa(lp8738
I35
aI0
aI0
aa(lp8739
I26
aI5
aI0
aa(lp8740
I0
aI0
aI0
aa(lp8741
I3
aI1
aI0
aa(lp8742
I3
aI1
aI1
aa(lp8743
I1
aI0
aI0
aa(lp8744
I21
aI4
aI0
aa(lp8745
I9
aI0
aI0
aa(lp8746
I0
aI0
aI0
aa(lp8747
I5
aI0
aI0
aa(lp8748
I32
aI10
aI0
aa(lp8749
I1
aI0
aI0
aa(lp8750
I0
aI0
aI0
aa(lp8751
I2
aI0
aI0
aa(lp8752
I10
aI0
aI0
aa(lp8753
I1
aI0
aI0
aa(lp8754
I0
aI0
aI0
aa(lp8755
I2
aI0
aI0
aa(lp8756
I2
aI2
aI1
aa(lp8757
I1
aI1
aI1
aa(lp8758
I0
aI0
aI0
aa(lp8759
I50
aI4
aI0
aa(lp8760
I2
aI1
aI1
aa(lp8761
I0
aI0
aI0
aa(lp8762
I2
aI0
aI0
aa(lp8763
I19
aI4
aI0
aa(lp8764
I0
aI0
aI0
aa(lp8765
I12
aI8
aI1
aa(lp8766
I5
aI3
aI1
aa(lp8767
I0
aI0
aI0
aa(lp8768
I13
aI0
aI0
aa(lp8769
I29
aI16
aI1
aa(lp8770
I25
aI14
aI0
aa(lp8771
I10
aI0
aI0
aa(lp8772
I6
aI0
aI0
aa(lp8773
I7
aI4
aI1
aa(lp8774
I26
aI2
aI1
aa(lp8775
I5
aI0
aI0
aa(lp8776
I38
aI4
aI0
aa(lp8777
I13
aI2
aI0
aa(lp8778
I12
aI1
aI0
aa(lp8779
I8
aI3
aI0
aa(lp8780
I17
aI8
aI0
aa(lp8781
I19
aI1
aI0
aa(lp8782
I34
aI0
aI0
aa(lp8783
I12
aI2
aI0
aa(lp8784
I12
aI2
aI0
aa(lp8785
I49
aI7
aI0
aa(lp8786
I39
aI4
aI0
aa(lp8787
I10
aI4
aI1
aa(lp8788
I33
aI4
aI0
aa(lp8789
I2
aI0
aI0
aa(lp8790
I0
aI0
aI0
aa(lp8791
I0
aI0
aI0
aa(lp8792
I0
aI0
aI0
aa(lp8793
I0
aI0
aI0
aa(lp8794
I3
aI3
aI1
aa(lp8795
I14
aI4
aI1
aa(lp8796
I13
aI1
aI0
aa(lp8797
I0
aI0
aI0
aa(lp8798
I5
aI0
aI0
aa(lp8799
I4
aI3
aI1
aa(lp8800
I11
aI0
aI0
aa(lp8801
I5
aI1
aI0
aa(lp8802
I9
aI1
aI0
aa(lp8803
I24
aI12
aI1
aa(lp8804
I12
aI2
aI1
aa(lp8805
I2
aI0
aI0
aa(lp8806
I0
aI0
aI0
aa(lp8807
I1
aI0
aI0
aa(lp8808
I0
aI0
aI0
aa(lp8809
I11
aI0
aI0
aa(lp8810
I1
aI0
aI0
aa(lp8811
I4
aI1
aI0
aa(lp8812
I12
aI2
aI1
aa(lp8813
I0
aI0
aI0
aa(lp8814
I0
aI0
aI0
aa(lp8815
I16
aI1
aI0
aa(lp8816
I51
aI4
aI0
aa(lp8817
I19
aI0
aI0
aa(lp8818
I6
aI0
aI0
aa(lp8819
I3
aI0
aI0
aa(lp8820
I7
aI1
aI0
aa(lp8821
I9
aI0
aI0
aa(lp8822
I18
aI9
aI0
aa(lp8823
I5
aI3
aI0
aa(lp8824
I4
aI0
aI0
aa(lp8825
I10
aI2
aI0
aa(lp8826
I30
aI7
aI0
aa(lp8827
I41
aI0
aI0
aa(lp8828
I0
aI0
aI0
aa(lp8829
I0
aI0
aI0
aa(lp8830
I1
aI1
aI1
aa(lp8831
I0
aI0
aI0
aa(lp8832
I27
aI5
aI0
aa(lp8833
I55
aI0
aI0
aa(lp8834
I37
aI3
aI0
aa(lp8835
I43
aI17
aI0
aa(lp8836
I24
aI5
aI0
aa(lp8837
I42
aI0
aI0
aa(lp8838
I3
aI0
aI0
aa(lp8839
I13
aI0
aI0
aa(lp8840
I13
aI1
aI0
aa(lp8841
I5
aI2
aI1
aa(lp8842
I0
aI0
aI0
aa(lp8843
I0
aI0
aI0
aa(lp8844
I36
aI1
aI0
aa(lp8845
I20
aI11
aI1
aa(lp8846
I39
aI14
aI0
aa(lp8847
I20
aI1
aI0
aa(lp8848
I13
aI5
aI0
aa(lp8849
I18
aI1
aI0
aa(lp8850
I48
aI4
aI0
aa(lp8851
I38
aI3
aI0
aa(lp8852
I33
aI8
aI0
aa(lp8853
I37
aI15
aI1
aa(lp8854
I11
aI5
aI0
aa(lp8855
I13
aI2
aI0
aa(lp8856
I31
aI7
aI0
aa(lp8857
I40
aI15
aI1
aa(lp8858
I56
aI0
aI0
aa(lp8859
I29
aI24
aI0
aa(lp8860
I20
aI4
aI0
aa(lp8861
I16
aI8
aI0
aa(lp8862
I7
aI0
aI0
aa(lp8863
I39
aI3
aI0
aa(lp8864
I42
aI0
aI0
aa(lp8865
I18
aI8
aI0
aa(lp8866
I11
aI0
aI0
aa(lp8867
I5
aI0
aI0
aa(lp8868
I21
aI0
aI0
aa(lp8869
I0
aI0
aI0
aa(lp8870
I1
aI0
aI0
aa(lp8871
I21
aI1
aI0
aa(lp8872
I25
aI12
aI0
aa(lp8873
I39
aI15
aI0
aa(lp8874
I6
aI0
aI0
aa(lp8875
I7
aI1
aI1
aa(lp8876
I23
aI6
aI0
aa(lp8877
I1
aI0
aI0
aa(lp8878
I0
aI0
aI0
aa(lp8879
I14
aI4
aI0
aa(lp8880
I0
aI0
aI0
aa(lp8881
I22
aI4
aI0
aa(lp8882
I3
aI0
aI0
aa(lp8883
I1
aI0
aI0
aa(lp8884
I3
aI0
aI0
aa(lp8885
I4
aI2
aI1
aa(lp8886
I57
aI0
aI0
aa(lp8887
I14
aI1
aI0
aa(lp8888
I28
aI5
aI0
aa(lp8889
I6
aI1
aI0
aa(lp8890
I40
aI3
aI0
aa(lp8891
I33
aI10
aI0
aa(lp8892
I15
aI2
aI0
aa(lp8893
I12
aI8
aI1
aa(lp8894
I24
aI1
aI0
aa(lp8895
I15
aI7
aI1
aa(lp8896
I30
aI25
aI1
aa(lp8897
I16
aI2
aI0
aa(lp8898
I2
aI0
aI0
aa(lp8899
I20
aI12
aI1
aa(lp8900
I29
aI10
aI1
aa(lp8901
I6
aI0
aI0
aa(lp8902
I38
aI3
aI0
aa(lp8903
I7
aI0
aI0
aa(lp8904
I28
aI16
aI0
aa(lp8905
I5
aI1
aI0
aa(lp8906
I16
aI1
aI0
aa(lp8907
I8
aI2
aI0
aa(lp8908
I0
aI0
aI0
aa.